
app_demo.elf:     file format elf32-littleriscv
app_demo.elf
architecture: riscv:rv32, flags 0x00000112:
EXEC_P, HAS_SYMS, D_PAGED
start address 0x00010000

Program Header:
    LOAD off    0x00001000 vaddr 0x00010000 paddr 0x00010000 align 2**12
         filesz 0x00005572 memsz 0x0002e680 flags rwx

Sections:
Idx Name                       Size      VMA       LMA       File off  Algn  Flags
  0 .init                      00000078  00010000  00010000  00001000  2**0  CONTENTS, ALLOC, LOAD, READONLY, CODE
  1 .text                      00005048  00010078  00010078  00001078  2**2  CONTENTS, ALLOC, LOAD, READONLY, CODE
  2 .sdata2._global_impure_ptr 00000004  000150c0  000150c0  000060c0  2**2  CONTENTS, ALLOC, LOAD, READONLY, DATA
  3 .lalign                    00000000  000150c4  000150c4  00006572  2**0  CONTENTS
  4 .dalign                    00000000  000150c4  000150c4  00006572  2**0  CONTENTS
  5 .data                      000004ae  000150c4  000150c4  000060c4  2**2  CONTENTS, ALLOC, LOAD, DATA
  6 .bss                       00000100  00015574  00015574  00006572  2**2  ALLOC
  7 .heap                      00019000  00015674  00015674  00006572  2**0  ALLOC
  8 .stack                     00010000  0002e680  0002e680  00006572  2**4  ALLOC
  9 .debug_info                0000a7da  00000000  00000000  00006572  2**0  CONTENTS, READONLY, DEBUGGING
 10 .debug_abbrev              00001e92  00000000  00000000  00010d4c  2**0  CONTENTS, READONLY, DEBUGGING
 11 .debug_aranges             00000550  00000000  00000000  00012be0  2**3  CONTENTS, READONLY, DEBUGGING
 12 .debug_ranges              00000430  00000000  00000000  00013130  2**0  CONTENTS, READONLY, DEBUGGING
 13 .debug_line                000061ee  00000000  00000000  00013560  2**0  CONTENTS, READONLY, DEBUGGING
 14 .debug_str                 00001afc  00000000  00000000  0001974e  2**0  CONTENTS, READONLY, DEBUGGING
 15 .comment                   00000033  00000000  00000000  0001b24a  2**0  CONTENTS, READONLY
 16 .debug_frame               00001c2c  00000000  00000000  0001b280  2**2  CONTENTS, READONLY, DEBUGGING
SYMBOL TABLE:
00010000 l    d  .init	00000000 .init
00010078 l    d  .text	00000000 .text
000150c0 l    d  .sdata2._global_impure_ptr	00000000 .sdata2._global_impure_ptr
000150c4 l    d  .lalign	00000000 .lalign
000150c4 l    d  .dalign	00000000 .dalign
000150c4 l    d  .data	00000000 .data
00015574 l    d  .bss	00000000 .bss
00015674 l    d  .heap	00000000 .heap
0002e680 l    d  .stack	00000000 .stack
00000000 l    d  .debug_info	00000000 .debug_info
00000000 l    d  .debug_abbrev	00000000 .debug_abbrev
00000000 l    d  .debug_aranges	00000000 .debug_aranges
00000000 l    d  .debug_ranges	00000000 .debug_ranges
00000000 l    d  .debug_line	00000000 .debug_line
00000000 l    d  .debug_str	00000000 .debug_str
00000000 l    d  .comment	00000000 .comment
00000000 l    d  .debug_frame	00000000 .debug_frame
00000000 l    df *ABS*	00000000 ./src/Bsp/Core/start.o
0001006c l       .init	00000000 mainDone
00000000 l    df *ABS*	00000000 main.c
00000000 l    df *ABS*	00000000 close.c
000100d4 l     F .text	00000024 _stub
00000000 l    df *ABS*	00000000 fstat.c
0001012c l     F .text	00000024 _stub
00000000 l    df *ABS*	00000000 isatty.c
00000000 l    df *ABS*	00000000 lseek.c
000101f0 l     F .text	00000024 _stub
00000000 l    df *ABS*	00000000 read.c
00010268 l     F .text	00000024 _stub
00000000 l    df *ABS*	00000000 sbrk.c
00015558 l     O .data	00000004 curbrk.1526
00000000 l    df *ABS*	00000000 write.c
00010354 l     F .text	00000024 _stub
00000000 l    df *ABS*	00000000 hme_gpio.c
00010fd0 l     F .text	00000074 PlicGpioHandle
00010ef8 l     F .text	00000068 GpioIntrStateGet
00010f60 l     F .text	00000070 GpioIntrStateClear
00011044 l     F .text	00000094 GpioIntrDispatch
000110d8 l     F .text	00000034 GpioIntrExecute
00000000 l    df *ABS*	00000000 hme_plic.c
00015580 l     O .bss	0000009c astPlicReg
00015428 l     O .data	000000d0 astDevParam
0001110c l     F .text	00000034 PlicClaimGet
00011140 l     F .text	00000034 PlicFinishNotice
00011b00 l     F .text	00000030 PlicErrExcute
00000000 l    df *ABS*	00000000 hme_timer.c
00011f48 l     F .text	00000044 PlicMachineTimerHandle
00000000 l    df *ABS*	00000000 hme_uart.c
0001284c l     F .text	00000060 PlicUartHandle
000128ac l     F .text	00000094 UartIntrDispatch
00012940 l     F .text	00000030 UartIntrRecvErr
00012970 l     F .text	00000260 UartIntrRecvExc
00012bd0 l     F .text	00000068 UartIntrRecvTimeOut
00012c38 l     F .text	00000030 UartIntrSendExc
00012c68 l     F .text	00000030 UartIntrModemExc
00000000 l    df *ABS*	00000000 system.c
00000000 l    df *ABS*	00000000 trap_handle.c
00000000 l    df *ABS*	00000000 fflush.c
00000000 l    df *ABS*	00000000 findfp.c
00013694 l     F .text	00000088 std
00000000 l    df *ABS*	00000000 fwalk.c
00000000 l    df *ABS*	00000000 init.c
00000000 l    df *ABS*	00000000 nano-mallocr.c
00000000 l    df *ABS*	00000000 nano-mallocr.c
00000000 l    df *ABS*	00000000 printf.c
00000000 l    df *ABS*	00000000 puts.c
00000000 l    df *ABS*	00000000 sbrkr.c
00000000 l    df *ABS*	00000000 stdio.c
00000000 l    df *ABS*	00000000 sysisatty.c
00000000 l    df *ABS*	00000000 wbuf.c
00000000 l    df *ABS*	00000000 writer.c
00000000 l    df *ABS*	00000000 wsetup.c
00000000 l    df *ABS*	00000000 closer.c
00000000 l    df *ABS*	00000000 lseekr.c
00000000 l    df *ABS*	00000000 makebuf.c
00000000 l    df *ABS*	00000000 mlock.c
00000000 l    df *ABS*	00000000 nano-vfprintf.c
000145b8 l     F .text	0000003c __sfputc_r
00000000 l    df *ABS*	00000000 nano-vfprintf_i.c
00000000 l    df *ABS*	00000000 readr.c
00000000 l    df *ABS*	00000000 fstatr.c
00000000 l    df *ABS*	00000000 isattyr.c
00000000 l    df *ABS*	00000000 memchr.c
00000000 l    df *ABS*	00000000 impure.c
000154f8 l     O .data	00000060 impure_data
00000000 l    df *ABS*	00000000 reent.c
00000000 l    df *ABS*	00000000 
000150c4 l       .sdata2._global_impure_ptr	00000000 __init_array_end
000150c4 l       .sdata2._global_impure_ptr	00000000 __preinit_array_end
000150c4 l       .sdata2._global_impure_ptr	00000000 __init_array_start
000150c4 l       .sdata2._global_impure_ptr	00000000 __preinit_array_start
00015050 g     F .text	0000004c _isatty_r
00013d90 g     F .text	00000160 _puts_r
000143e0 g     F .text	00000054 _lseek_r
00012754 g     F .text	0000007c UartIntrCfg
00015658 g     O .bss	00000018 stGpioObj
0001236c g     F .text	0000007c UartTranModeCfg
00011f8c g     F .text	000000e4 UartStructDeInit
00013d14 g     F .text	0000007c printf
0001222c g     F .text	00000090 UartDivAccessClear
00014024 g     F .text	00000058 __sseek
00013794 g     F .text	000000b4 __sinit
00014088 g     F .text	00000138 __swbuf_r
00011cd4 g     F .text	0000015c MachineTimerCmpAdjuct
00013728 g     F .text	0000006c __sfmoreglue
000145b4 g     F .text	00000004 __malloc_unlock
000124e0 g     F .text	00000074 UartLineStatusGet
00015560 g     O .data	00000004 imgAddrRd
0001555c g     O .data	00000004 imgAddr
000126b4 g     F .text	000000a0 UartByteSend
000133d8 g     F .text	00000030 assert_failed
00015000 g     F .text	00000050 _fstat_r
00015670 g     O .bss	00000004 errno
00010000 g       *ABS*	00000000 __stack_size
0001561c g     O .bss	00000024 stUartObj
00010b80 g     F .text	000002d8 GpioBitsIntrCfg
000127d0 g     F .text	0000007c UartIntrIDGet
0001371c g     F .text	0000000c _cleanup_r
00012070 g     F .text	0000012c UartObjConfigInit
000109b4 g     F .text	000001cc GpioBitsDebounceCfg
00013ef0 g     F .text	00000014 puts
0003e680 g       .stack	00000000 __freertos_irq_stack_top
00014084 g     F .text	00000004 isatty
00010150 g     F .text	0000005c _fstat
00011770 g     F .text	00000028 PlicThresholdGet
00013f04 g     F .text	0000004c _sbrk_r
00014fac g     F .text	00000054 _read_r
00011ec0 g     F .text	00000088 MachineTimerCtrllerCmpSet
00013124 g     F .text	000002b4 UartIntrTest
0002e674 g       .heap	00000000 _heap_end
000101ac g     F .text	00000044 _isatty
000116d8 g     F .text	00000024 PlicEnableGet
000150c0 g     O .sdata2._global_impure_ptr	00000004 _global_impure_ptr
000139ec g     F .text	000000a4 __libc_init_array
00012f4c g     F .text	00000044 TrapInit
000102c8 g     F .text	0000008c _sbrk
0001190c g     F .text	000001f4 ExternalInterruptExcute
00010074 g       .init	00000000 _init
00011260 g     F .text	000000ec DevPriorityOffsetTableGet
000122bc g     F .text	000000b0 UartBaudDivCfg
0001307c g     F .text	00000054 load_image
00015674 g       .heap	00000000 _heap_start
00011688 g     F .text	00000050 PlicEnableSet
00011580 g     F .text	00000108 IntrPriorityGet
00019000 g       *ABS*	00000000 __heap_size
0001538c g     O .data	00000020 __sf_fake_stderr
000125c4 g     F .text	00000074 UartModemStatusGet
000145f4 g     F .text	00000074 __sfputs_r
0001509c g     F .text	00000024 memchr
00013aac g     F .text	0000010c _free_r
0003e680 g       .stack	00000000 _sp
00010000 g     F .init	00000000 _start
00010214 g     F .text	00000054 _lseek
0001219c g     F .text	00000090 UartDivAccessSet
00012464 g     F .text	0000007c UartOscCfg
00014394 g     F .text	0000004c _close_r
00011bbc g     F .text	00000118 MachineTimerObjConfigInit
00010714 g     F .text	00000078 GpioBitsDoutSet
00014214 g     F .text	00000180 __swsetup_r
00013848 g     F .text	000000f0 __sfp
00013f50 g     F .text	00000050 __sread
000145b0 g     F .text	00000004 __malloc_lock
00011174 g     F .text	000000ec DevIntrIdTableGet
000135f4 g     F .text	000000a0 _fflush_r
00015575 g     O .bss	00000001 rd_flag
000153ac g     O .data	00000020 __sf_fake_stdin
00015574 g       .bss	00000000 __bss_start
00013a90 g     F .text	0000001c memset
00010078 g     F .text	0000005c main
000130d0 g     F .text	00000054 soft_rstn
00012ce8 g       .text	00000000 trap_entry
0001078c g     F .text	00000078 GpioBitsDoutClear
0001407c g     F .text	00000008 __sclose
0001134c g     F .text	000000ec DevIntrEnTableGet
00013bb8 g     F .text	0000015c _malloc_r
00012f90 g     F .text	000000ec trap
00011e78 g     F .text	00000048 MachineTimerCtrllerCurTimeHGet
00011e30 g     F .text	00000048 MachineTimerCtrllerCurTimeLGet
00012e2c g     F .text	00000100 TimerInterruptExcute
00013d14 g     F .text	0000007c iprintf
00011438 g     F .text	00000148 IntrPrioritySet
000141c0 g     F .text	00000054 _write_r
00014a30 g     F .text	000001b0 _printf_common
00015564 g     O .data	00000004 _impure_ptr
00013408 g     F .text	000001ec __sflush_r
00012638 g     F .text	0000007c UartScratchCfg
00011b30 g     F .text	0000008c MachineTimerObjStructDeInit
000150c4 g       .dalign	00000000 _data
00010804 g     F .text	000001b0 GpioBitsPullCfg
00012f2c g     F .text	00000020 ExceptionHandleExcute
00014434 g     F .text	0000008c __swhatbuf_r
00010378 g     F .text	000000cc _write
00015574 g       .bss	00000000 _edata
00015678 g       .bss	00000000 _end
00010614 g     F .text	00000100 GpioBitsDirCfg
000150c4 g       .lalign	00000000 _data_lma
00012de8 g     F .text	00000044 SoftwareInterruptExcute
00013fa0 g     F .text	00000084 __swrite
00015674 g       .heap	00000000 _heap
00014668 g     F .text	000003c8 _vfiprintf_r
00013938 g     F .text	000000b4 _fwalk_reent
000153cc g     O .data	00000020 __sf_fake_stdout
0001028c g     F .text	0000003c _read
00011798 g     F .text	00000174 PlicIntrHandleRegister
00010e58 g     F .text	000000a0 GpioBitsIntrDisable
000144c0 g     F .text	000000f0 __smakebuf_r
00014be0 g     F .text	000003cc _printf_i
00015640 g     O .bss	00000018 stTimerObj
0001557c g     O .bss	00000004 __malloc_sbrk_start
00010444 g     F .text	000000bc GpioStructDeInit
00015578 g     O .bss	00000004 __malloc_free_list
00012554 g     F .text	00000070 UartModemCtrlCfg
000123e8 g     F .text	0000007c UartFifoCfg
00014668 g     F .text	000003c8 _vfprintf_r
00012c98 g     F .text	00000050 DelayUs
000116fc g     F .text	00000074 PlicThresholdSet
00010500 g     F .text	00000114 GpioObjConfigInit
00015574 g     O .bss	00000001 wr_flag
000100f8 g     F .text	00000034 _close



Disassembly of section .init:

00010000 <_start>:
_start():
D:\CreateIC\01_CPIPC\riscv\HME_RISCV_DEMO\VexRiscv_Prj\Firmware\app_prj\app_demo\Debug/../src/Bsp/Core/start.S:12
.option push
.option norelax
	la gp, __global_pointer$
.option pop
#endif
	la sp, _sp
   10000:	0002e117          	auipc	sp,0x2e
   10004:	68010113          	addi	sp,sp,1664 # 3e680 <__freertos_irq_stack_top>
D:\CreateIC\01_CPIPC\riscv\HME_RISCV_DEMO\VexRiscv_Prj\Firmware\app_prj\app_demo\Debug/../src/Bsp/Core/start.S:15

	/* Load data section */
	la a0, _data_lma
   10008:	00005517          	auipc	a0,0x5
   1000c:	0bc50513          	addi	a0,a0,188 # 150c4 <__init_array_end>
D:\CreateIC\01_CPIPC\riscv\HME_RISCV_DEMO\VexRiscv_Prj\Firmware\app_prj\app_demo\Debug/../src/Bsp/Core/start.S:16
	la a1, _data
   10010:	00005597          	auipc	a1,0x5
   10014:	0b458593          	addi	a1,a1,180 # 150c4 <__init_array_end>
D:\CreateIC\01_CPIPC\riscv\HME_RISCV_DEMO\VexRiscv_Prj\Firmware\app_prj\app_demo\Debug/../src/Bsp/Core/start.S:17
	la a2, _edata
   10018:	00005617          	auipc	a2,0x5
   1001c:	55c60613          	addi	a2,a2,1372 # 15574 <wr_flag>
D:\CreateIC\01_CPIPC\riscv\HME_RISCV_DEMO\VexRiscv_Prj\Firmware\app_prj\app_demo\Debug/../src/Bsp/Core/start.S:18
	bgeu a1, a2, 2f
   10020:	00c5fc63          	bgeu	a1,a2,10038 <_start+0x38>
D:\CreateIC\01_CPIPC\riscv\HME_RISCV_DEMO\VexRiscv_Prj\Firmware\app_prj\app_demo\Debug/../src/Bsp/Core/start.S:20
1:
	lw t0, (a0)
   10024:	00052283          	lw	t0,0(a0)
D:\CreateIC\01_CPIPC\riscv\HME_RISCV_DEMO\VexRiscv_Prj\Firmware\app_prj\app_demo\Debug/../src/Bsp/Core/start.S:21
	sw t0, (a1)
   10028:	0055a023          	sw	t0,0(a1)
D:\CreateIC\01_CPIPC\riscv\HME_RISCV_DEMO\VexRiscv_Prj\Firmware\app_prj\app_demo\Debug/../src/Bsp/Core/start.S:22
	addi a0, a0, 4
   1002c:	00450513          	addi	a0,a0,4
D:\CreateIC\01_CPIPC\riscv\HME_RISCV_DEMO\VexRiscv_Prj\Firmware\app_prj\app_demo\Debug/../src/Bsp/Core/start.S:23
	addi a1, a1, 4
   10030:	00458593          	addi	a1,a1,4
D:\CreateIC\01_CPIPC\riscv\HME_RISCV_DEMO\VexRiscv_Prj\Firmware\app_prj\app_demo\Debug/../src/Bsp/Core/start.S:24
	bltu a1, a2, 1b
   10034:	fec5e8e3          	bltu	a1,a2,10024 <_start+0x24>
D:\CreateIC\01_CPIPC\riscv\HME_RISCV_DEMO\VexRiscv_Prj\Firmware\app_prj\app_demo\Debug/../src/Bsp/Core/start.S:28
2:

	/* Clear bss section */
	la a0, __bss_start
   10038:	00005517          	auipc	a0,0x5
   1003c:	53c50513          	addi	a0,a0,1340 # 15574 <wr_flag>
D:\CreateIC\01_CPIPC\riscv\HME_RISCV_DEMO\VexRiscv_Prj\Firmware\app_prj\app_demo\Debug/../src/Bsp/Core/start.S:29
	la a1, _end
   10040:	00005597          	auipc	a1,0x5
   10044:	63858593          	addi	a1,a1,1592 # 15678 <_end>
D:\CreateIC\01_CPIPC\riscv\HME_RISCV_DEMO\VexRiscv_Prj\Firmware\app_prj\app_demo\Debug/../src/Bsp/Core/start.S:30
	bgeu a0, a1, 2f
   10048:	00b57863          	bgeu	a0,a1,10058 <_start+0x58>
D:\CreateIC\01_CPIPC\riscv\HME_RISCV_DEMO\VexRiscv_Prj\Firmware\app_prj\app_demo\Debug/../src/Bsp/Core/start.S:32
1:
	sw zero, (a0)
   1004c:	00052023          	sw	zero,0(a0)
D:\CreateIC\01_CPIPC\riscv\HME_RISCV_DEMO\VexRiscv_Prj\Firmware\app_prj\app_demo\Debug/../src/Bsp/Core/start.S:33
	addi a0, a0, 4
   10050:	00450513          	addi	a0,a0,4
D:\CreateIC\01_CPIPC\riscv\HME_RISCV_DEMO\VexRiscv_Prj\Firmware\app_prj\app_demo\Debug/../src/Bsp/Core/start.S:34
	bltu a0, a1, 1b
   10054:	feb56ce3          	bltu	a0,a1,1004c <_start+0x4c>
D:\CreateIC\01_CPIPC\riscv\HME_RISCV_DEMO\VexRiscv_Prj\Firmware\app_prj\app_demo\Debug/../src/Bsp/Core/start.S:36
2:
	la t0, trap_entry
   10058:	00003297          	auipc	t0,0x3
   1005c:	c9028293          	addi	t0,t0,-880 # 12ce8 <trap_entry>
D:\CreateIC\01_CPIPC\riscv\HME_RISCV_DEMO\VexRiscv_Prj\Firmware\app_prj\app_demo\Debug/../src/Bsp/Core/start.S:37
	csrw mtvec, t0
   10060:	30529073          	csrw	mtvec,t0
D:\CreateIC\01_CPIPC\riscv\HME_RISCV_DEMO\VexRiscv_Prj\Firmware\app_prj\app_demo\Debug/../src/Bsp/Core/start.S:39

	call __libc_init_array
   10064:	189030ef          	jal	ra,139ec <__libc_init_array>
D:\CreateIC\01_CPIPC\riscv\HME_RISCV_DEMO\VexRiscv_Prj\Firmware\app_prj\app_demo\Debug/../src/Bsp/Core/start.S:40
	call main
   10068:	010000ef          	jal	ra,10078 <main>

0001006c <mainDone>:
mainDone():
D:\CreateIC\01_CPIPC\riscv\HME_RISCV_DEMO\VexRiscv_Prj\Firmware\app_prj\app_demo\Debug/../src/Bsp/Core/start.S:42
mainDone:
    j mainDone
   1006c:	0000006f          	j	1006c <mainDone>
D:\CreateIC\01_CPIPC\riscv\HME_RISCV_DEMO\VexRiscv_Prj\Firmware\app_prj\app_demo\Debug/../src/Bsp/Core/start.S:46

    .weak trap_entry
trap_entry:
 1:	j 1b
   10070:	0000006f          	j	10070 <mainDone+0x4>

00010074 <_init>:
_init():
D:\CreateIC\01_CPIPC\riscv\HME_RISCV_DEMO\VexRiscv_Prj\Firmware\app_prj\app_demo\Debug/../src/Bsp/Core/start.S:50

 	.globl _init
_init:
    ret
   10074:	00008067          	ret

Disassembly of section .text:

00010078 <main>:
main():
D:\CreateIC\01_CPIPC\riscv\RISCV_ENC_20220421\Firmware_true\app_prj\app_demo\Debug/../src/main.c:63
    DelayUs(10);
    GpioBitsDoutClear(&stGpioObj);
}

int main(void)
{
   10078:	ff010113          	addi	sp,sp,-16
   1007c:	00112623          	sw	ra,12(sp)
   10080:	00812423          	sw	s0,8(sp)
   10084:	01010413          	addi	s0,sp,16
D:\CreateIC\01_CPIPC\riscv\RISCV_ENC_20220421\Firmware_true\app_prj\app_demo\Debug/../src/main.c:65
	/* Initialize GPIO Structure */
	GpioStructDeInit(&stGpioObj);
   10088:	000157b7          	lui	a5,0x15
   1008c:	65878513          	addi	a0,a5,1624 # 15658 <stGpioObj>
   10090:	3b4000ef          	jal	ra,10444 <GpioStructDeInit>
D:\CreateIC\01_CPIPC\riscv\RISCV_ENC_20220421\Firmware_true\app_prj\app_demo\Debug/../src/main.c:66
	GpioObjConfigInit(&stGpioObj);
   10094:	000157b7          	lui	a5,0x15
   10098:	65878513          	addi	a0,a5,1624 # 15658 <stGpioObj>
   1009c:	464000ef          	jal	ra,10500 <GpioObjConfigInit>
D:\CreateIC\01_CPIPC\riscv\RISCV_ENC_20220421\Firmware_true\app_prj\app_demo\Debug/../src/main.c:67
    GpioBitsDoutSet(&stGpioObj);
   100a0:	000157b7          	lui	a5,0x15
   100a4:	65878513          	addi	a0,a5,1624 # 15658 <stGpioObj>
   100a8:	66c000ef          	jal	ra,10714 <GpioBitsDoutSet>
D:\CreateIC\01_CPIPC\riscv\RISCV_ENC_20220421\Firmware_true\app_prj\app_demo\Debug/../src/main.c:69

    printf ("hello\n");
   100ac:	000157b7          	lui	a5,0x15
   100b0:	26078513          	addi	a0,a5,608 # 15260 <__init_array_end+0x19c>
   100b4:	63d030ef          	jal	ra,13ef0 <puts>
D:\CreateIC\01_CPIPC\riscv\RISCV_ENC_20220421\Firmware_true\app_prj\app_demo\Debug/../src/main.c:71

	UartIntrTest();
   100b8:	06c030ef          	jal	ra,13124 <UartIntrTest>
   100bc:	00000793          	li	a5,0
D:\CreateIC\01_CPIPC\riscv\RISCV_ENC_20220421\Firmware_true\app_prj\app_demo\Debug/../src/main.c:72
}
   100c0:	00078513          	mv	a0,a5
   100c4:	00c12083          	lw	ra,12(sp)
   100c8:	00812403          	lw	s0,8(sp)
   100cc:	01010113          	addi	sp,sp,16
   100d0:	00008067          	ret

000100d4 <_stub>:
_stub():
D:\CreateIC\01_CPIPC\riscv\HME_RISCV_DEMO\VexRiscv_Prj\Firmware\app_prj\app_demo\Debug/../src/Bsp/libwrap/sys/stub.h:6
/* See LICENSE of license details. */
#ifndef _SIFIVE_SYS_STUB_H
#define _SIFIVE_SYS_STUB_H

static inline int _stub(int err)
{
   100d4:	fe010113          	addi	sp,sp,-32
   100d8:	00812e23          	sw	s0,28(sp)
   100dc:	02010413          	addi	s0,sp,32
   100e0:	fea42623          	sw	a0,-20(s0)
D:\CreateIC\01_CPIPC\riscv\HME_RISCV_DEMO\VexRiscv_Prj\Firmware\app_prj\app_demo\Debug/../src/Bsp/libwrap/sys/stub.h:7
  return -1;
   100e4:	fff00793          	li	a5,-1
D:\CreateIC\01_CPIPC\riscv\HME_RISCV_DEMO\VexRiscv_Prj\Firmware\app_prj\app_demo\Debug/../src/Bsp/libwrap/sys/stub.h:8
}
   100e8:	00078513          	mv	a0,a5
   100ec:	01c12403          	lw	s0,28(sp)
   100f0:	02010113          	addi	sp,sp,32
   100f4:	00008067          	ret

000100f8 <_close>:
_close():
D:\CreateIC\01_CPIPC\riscv\HME_RISCV_DEMO\VexRiscv_Prj\Firmware\app_prj\app_demo\Debug/../src/Bsp/libwrap/sys/close.c:7

#include <errno.h>
#include "stub.h"

int _close(int fd)
{
   100f8:	fe010113          	addi	sp,sp,-32
   100fc:	00112e23          	sw	ra,28(sp)
   10100:	00812c23          	sw	s0,24(sp)
   10104:	02010413          	addi	s0,sp,32
   10108:	fea42623          	sw	a0,-20(s0)
D:\CreateIC\01_CPIPC\riscv\HME_RISCV_DEMO\VexRiscv_Prj\Firmware\app_prj\app_demo\Debug/../src/Bsp/libwrap/sys/close.c:8
  return _stub(EBADF);
   1010c:	00900513          	li	a0,9
   10110:	fc5ff0ef          	jal	ra,100d4 <_stub>
   10114:	00050793          	mv	a5,a0
D:\CreateIC\01_CPIPC\riscv\HME_RISCV_DEMO\VexRiscv_Prj\Firmware\app_prj\app_demo\Debug/../src/Bsp/libwrap/sys/close.c:9
}
   10118:	00078513          	mv	a0,a5
   1011c:	01c12083          	lw	ra,28(sp)
   10120:	01812403          	lw	s0,24(sp)
   10124:	02010113          	addi	sp,sp,32
   10128:	00008067          	ret

0001012c <_stub>:
_stub():
D:\CreateIC\01_CPIPC\riscv\HME_RISCV_DEMO\VexRiscv_Prj\Firmware\app_prj\app_demo\Debug/../src/Bsp/libwrap/sys/stub.h:6
{
   1012c:	fe010113          	addi	sp,sp,-32
   10130:	00812e23          	sw	s0,28(sp)
   10134:	02010413          	addi	s0,sp,32
   10138:	fea42623          	sw	a0,-20(s0)
D:\CreateIC\01_CPIPC\riscv\HME_RISCV_DEMO\VexRiscv_Prj\Firmware\app_prj\app_demo\Debug/../src/Bsp/libwrap/sys/stub.h:7
  return -1;
   1013c:	fff00793          	li	a5,-1
D:\CreateIC\01_CPIPC\riscv\HME_RISCV_DEMO\VexRiscv_Prj\Firmware\app_prj\app_demo\Debug/../src/Bsp/libwrap/sys/stub.h:8
}
   10140:	00078513          	mv	a0,a5
   10144:	01c12403          	lw	s0,28(sp)
   10148:	02010113          	addi	sp,sp,32
   1014c:	00008067          	ret

00010150 <_fstat>:
_fstat():
D:\CreateIC\01_CPIPC\riscv\HME_RISCV_DEMO\VexRiscv_Prj\Firmware\app_prj\app_demo\Debug/../src/Bsp/libwrap/sys/fstat.c:9
#include <unistd.h>
#include <sys/stat.h>
#include "stub.h"

int _fstat(int fd, struct stat* st)
{
   10150:	fe010113          	addi	sp,sp,-32
   10154:	00112e23          	sw	ra,28(sp)
   10158:	00812c23          	sw	s0,24(sp)
   1015c:	02010413          	addi	s0,sp,32
   10160:	fea42623          	sw	a0,-20(s0)
   10164:	feb42423          	sw	a1,-24(s0)
D:\CreateIC\01_CPIPC\riscv\HME_RISCV_DEMO\VexRiscv_Prj\Firmware\app_prj\app_demo\Debug/../src/Bsp/libwrap/sys/fstat.c:10
  if (isatty(fd)) {
   10168:	fec42503          	lw	a0,-20(s0)
   1016c:	719030ef          	jal	ra,14084 <isatty>
   10170:	00050793          	mv	a5,a0
   10174:	00078c63          	beqz	a5,1018c <_fstat+0x3c>
D:\CreateIC\01_CPIPC\riscv\HME_RISCV_DEMO\VexRiscv_Prj\Firmware\app_prj\app_demo\Debug/../src/Bsp/libwrap/sys/fstat.c:11
    st->st_mode = S_IFCHR;
   10178:	fe842783          	lw	a5,-24(s0)
   1017c:	00002737          	lui	a4,0x2
   10180:	00e7a223          	sw	a4,4(a5)
D:\CreateIC\01_CPIPC\riscv\HME_RISCV_DEMO\VexRiscv_Prj\Firmware\app_prj\app_demo\Debug/../src/Bsp/libwrap/sys/fstat.c:12
    return 0;
   10184:	00000793          	li	a5,0
   10188:	0100006f          	j	10198 <_fstat+0x48>
D:\CreateIC\01_CPIPC\riscv\HME_RISCV_DEMO\VexRiscv_Prj\Firmware\app_prj\app_demo\Debug/../src/Bsp/libwrap/sys/fstat.c:15
  }

  return _stub(EBADF);
   1018c:	00900513          	li	a0,9
   10190:	f9dff0ef          	jal	ra,1012c <_stub>
   10194:	00050793          	mv	a5,a0
D:\CreateIC\01_CPIPC\riscv\HME_RISCV_DEMO\VexRiscv_Prj\Firmware\app_prj\app_demo\Debug/../src/Bsp/libwrap/sys/fstat.c:16
}
   10198:	00078513          	mv	a0,a5
   1019c:	01c12083          	lw	ra,28(sp)
   101a0:	01812403          	lw	s0,24(sp)
   101a4:	02010113          	addi	sp,sp,32
   101a8:	00008067          	ret

000101ac <_isatty>:
_isatty():
D:\CreateIC\01_CPIPC\riscv\HME_RISCV_DEMO\VexRiscv_Prj\Firmware\app_prj\app_demo\Debug/../src/Bsp/libwrap/sys/isatty.c:6
/* See LICENSE of license details. */

#include <unistd.h>

int _isatty(int fd)
{
   101ac:	fe010113          	addi	sp,sp,-32
   101b0:	00812e23          	sw	s0,28(sp)
   101b4:	02010413          	addi	s0,sp,32
   101b8:	fea42623          	sw	a0,-20(s0)
D:\CreateIC\01_CPIPC\riscv\HME_RISCV_DEMO\VexRiscv_Prj\Firmware\app_prj\app_demo\Debug/../src/Bsp/libwrap/sys/isatty.c:7
  if (fd == STDOUT_FILENO || fd == STDERR_FILENO)
   101bc:	fec42703          	lw	a4,-20(s0)
   101c0:	00100793          	li	a5,1
   101c4:	00f70863          	beq	a4,a5,101d4 <_isatty+0x28>
D:\CreateIC\01_CPIPC\riscv\HME_RISCV_DEMO\VexRiscv_Prj\Firmware\app_prj\app_demo\Debug/../src/Bsp/libwrap/sys/isatty.c:7 (discriminator 1)
   101c8:	fec42703          	lw	a4,-20(s0)
   101cc:	00200793          	li	a5,2
   101d0:	00f71663          	bne	a4,a5,101dc <_isatty+0x30>
D:\CreateIC\01_CPIPC\riscv\HME_RISCV_DEMO\VexRiscv_Prj\Firmware\app_prj\app_demo\Debug/../src/Bsp/libwrap/sys/isatty.c:8
    return 1;
   101d4:	00100793          	li	a5,1
   101d8:	0080006f          	j	101e0 <_isatty+0x34>
D:\CreateIC\01_CPIPC\riscv\HME_RISCV_DEMO\VexRiscv_Prj\Firmware\app_prj\app_demo\Debug/../src/Bsp/libwrap/sys/isatty.c:10

  return 0;
   101dc:	00000793          	li	a5,0
D:\CreateIC\01_CPIPC\riscv\HME_RISCV_DEMO\VexRiscv_Prj\Firmware\app_prj\app_demo\Debug/../src/Bsp/libwrap/sys/isatty.c:11
}
   101e0:	00078513          	mv	a0,a5
   101e4:	01c12403          	lw	s0,28(sp)
   101e8:	02010113          	addi	sp,sp,32
   101ec:	00008067          	ret

000101f0 <_stub>:
_stub():
D:\CreateIC\01_CPIPC\riscv\HME_RISCV_DEMO\VexRiscv_Prj\Firmware\app_prj\app_demo\Debug/../src/Bsp/libwrap/sys/stub.h:6
{
   101f0:	fe010113          	addi	sp,sp,-32
   101f4:	00812e23          	sw	s0,28(sp)
   101f8:	02010413          	addi	s0,sp,32
   101fc:	fea42623          	sw	a0,-20(s0)
D:\CreateIC\01_CPIPC\riscv\HME_RISCV_DEMO\VexRiscv_Prj\Firmware\app_prj\app_demo\Debug/../src/Bsp/libwrap/sys/stub.h:7
  return -1;
   10200:	fff00793          	li	a5,-1
D:\CreateIC\01_CPIPC\riscv\HME_RISCV_DEMO\VexRiscv_Prj\Firmware\app_prj\app_demo\Debug/../src/Bsp/libwrap/sys/stub.h:8
}
   10204:	00078513          	mv	a0,a5
   10208:	01c12403          	lw	s0,28(sp)
   1020c:	02010113          	addi	sp,sp,32
   10210:	00008067          	ret

00010214 <_lseek>:
_lseek():
D:\CreateIC\01_CPIPC\riscv\HME_RISCV_DEMO\VexRiscv_Prj\Firmware\app_prj\app_demo\Debug/../src/Bsp/libwrap/sys/lseek.c:9
#include <unistd.h>
#include <sys/types.h>
#include "stub.h"

off_t _lseek(int fd, off_t ptr, int dir)
{
   10214:	fe010113          	addi	sp,sp,-32
   10218:	00112e23          	sw	ra,28(sp)
   1021c:	00812c23          	sw	s0,24(sp)
   10220:	02010413          	addi	s0,sp,32
   10224:	fea42623          	sw	a0,-20(s0)
   10228:	feb42423          	sw	a1,-24(s0)
   1022c:	fec42223          	sw	a2,-28(s0)
D:\CreateIC\01_CPIPC\riscv\HME_RISCV_DEMO\VexRiscv_Prj\Firmware\app_prj\app_demo\Debug/../src/Bsp/libwrap/sys/lseek.c:10
  if (isatty(fd))
   10230:	fec42503          	lw	a0,-20(s0)
   10234:	651030ef          	jal	ra,14084 <isatty>
   10238:	00050793          	mv	a5,a0
   1023c:	00078663          	beqz	a5,10248 <_lseek+0x34>
D:\CreateIC\01_CPIPC\riscv\HME_RISCV_DEMO\VexRiscv_Prj\Firmware\app_prj\app_demo\Debug/../src/Bsp/libwrap/sys/lseek.c:11
    return 0;
   10240:	00000793          	li	a5,0
   10244:	0100006f          	j	10254 <_lseek+0x40>
D:\CreateIC\01_CPIPC\riscv\HME_RISCV_DEMO\VexRiscv_Prj\Firmware\app_prj\app_demo\Debug/../src/Bsp/libwrap/sys/lseek.c:13

  return _stub(EBADF);
   10248:	00900513          	li	a0,9
   1024c:	fa5ff0ef          	jal	ra,101f0 <_stub>
   10250:	00050793          	mv	a5,a0
D:\CreateIC\01_CPIPC\riscv\HME_RISCV_DEMO\VexRiscv_Prj\Firmware\app_prj\app_demo\Debug/../src/Bsp/libwrap/sys/lseek.c:14
}
   10254:	00078513          	mv	a0,a5
   10258:	01c12083          	lw	ra,28(sp)
   1025c:	01812403          	lw	s0,24(sp)
   10260:	02010113          	addi	sp,sp,32
   10264:	00008067          	ret

00010268 <_stub>:
_stub():
D:\CreateIC\01_CPIPC\riscv\RISCV_ENC_20220421\Firmware_true\app_prj\app_demo\Debug/../src/Bsp/libwrap/sys/stub.h:6
/* See LICENSE of license details. */
#ifndef _SIFIVE_SYS_STUB_H
#define _SIFIVE_SYS_STUB_H

static inline int _stub(int err)
{
   10268:	fe010113          	addi	sp,sp,-32
   1026c:	00812e23          	sw	s0,28(sp)
   10270:	02010413          	addi	s0,sp,32
   10274:	fea42623          	sw	a0,-20(s0)
D:\CreateIC\01_CPIPC\riscv\RISCV_ENC_20220421\Firmware_true\app_prj\app_demo\Debug/../src/Bsp/libwrap/sys/stub.h:7
  return -1;
   10278:	fff00793          	li	a5,-1
D:\CreateIC\01_CPIPC\riscv\RISCV_ENC_20220421\Firmware_true\app_prj\app_demo\Debug/../src/Bsp/libwrap/sys/stub.h:8
}
   1027c:	00078513          	mv	a0,a5
   10280:	01c12403          	lw	s0,28(sp)
   10284:	02010113          	addi	sp,sp,32
   10288:	00008067          	ret

0001028c <_read>:
_read():
D:\CreateIC\01_CPIPC\riscv\RISCV_ENC_20220421\Firmware_true\app_prj\app_demo\Debug/../src/Bsp/libwrap/sys/read.c:12

#include "platform.h"
#include "stub.h"

ssize_t _read(int fd, void* ptr, size_t len)
{
   1028c:	fe010113          	addi	sp,sp,-32
   10290:	00112e23          	sw	ra,28(sp)
   10294:	00812c23          	sw	s0,24(sp)
   10298:	02010413          	addi	s0,sp,32
   1029c:	fea42623          	sw	a0,-20(s0)
   102a0:	feb42423          	sw	a1,-24(s0)
   102a4:	fec42223          	sw	a2,-28(s0)
D:\CreateIC\01_CPIPC\riscv\RISCV_ENC_20220421\Firmware_true\app_prj\app_demo\Debug/../src/Bsp/libwrap/sys/read.c:31
  //    result++;
  //  }
  //  return result;
  //}

  return _stub(EBADF);
   102a8:	00900513          	li	a0,9
   102ac:	fbdff0ef          	jal	ra,10268 <_stub>
   102b0:	00050793          	mv	a5,a0
D:\CreateIC\01_CPIPC\riscv\RISCV_ENC_20220421\Firmware_true\app_prj\app_demo\Debug/../src/Bsp/libwrap/sys/read.c:32
}
   102b4:	00078513          	mv	a0,a5
   102b8:	01c12083          	lw	ra,28(sp)
   102bc:	01812403          	lw	s0,24(sp)
   102c0:	02010113          	addi	sp,sp,32
   102c4:	00008067          	ret

000102c8 <_sbrk>:
_sbrk():
D:\CreateIC\01_CPIPC\riscv\HME_RISCV_DEMO\VexRiscv_Prj\Firmware\app_prj\app_demo\Debug/../src/Bsp/libwrap/sys/sbrk.c:6
/* See LICENSE of license details. */

#include <stddef.h>

void *_sbrk(ptrdiff_t incr)
{
   102c8:	fe010113          	addi	sp,sp,-32
   102cc:	00812e23          	sw	s0,28(sp)
   102d0:	02010413          	addi	s0,sp,32
   102d4:	fea42623          	sw	a0,-20(s0)
D:\CreateIC\01_CPIPC\riscv\HME_RISCV_DEMO\VexRiscv_Prj\Firmware\app_prj\app_demo\Debug/../src/Bsp/libwrap/sys/sbrk.c:12
  extern char _end[];
  extern char _heap_end[];

  static char *curbrk = _end;

  if ((curbrk + incr < _end) || (curbrk + incr > _heap_end))
   102d8:	000157b7          	lui	a5,0x15
   102dc:	5587a703          	lw	a4,1368(a5) # 15558 <curbrk.1526>
   102e0:	fec42783          	lw	a5,-20(s0)
   102e4:	00f70733          	add	a4,a4,a5
   102e8:	000157b7          	lui	a5,0x15
   102ec:	67878793          	addi	a5,a5,1656 # 15678 <_end>
   102f0:	02f76063          	bltu	a4,a5,10310 <_sbrk+0x48>
D:\CreateIC\01_CPIPC\riscv\HME_RISCV_DEMO\VexRiscv_Prj\Firmware\app_prj\app_demo\Debug/../src/Bsp/libwrap/sys/sbrk.c:12 (discriminator 1)
   102f4:	000157b7          	lui	a5,0x15
   102f8:	5587a703          	lw	a4,1368(a5) # 15558 <curbrk.1526>
   102fc:	fec42783          	lw	a5,-20(s0)
   10300:	00f70733          	add	a4,a4,a5
   10304:	0002e7b7          	lui	a5,0x2e
   10308:	67478793          	addi	a5,a5,1652 # 2e674 <_heap_end>
   1030c:	00e7f663          	bgeu	a5,a4,10318 <_sbrk+0x50>
D:\CreateIC\01_CPIPC\riscv\HME_RISCV_DEMO\VexRiscv_Prj\Firmware\app_prj\app_demo\Debug/../src/Bsp/libwrap/sys/sbrk.c:14
  {
     return NULL - 1;
   10310:	fff00793          	li	a5,-1
   10314:	0300006f          	j	10344 <_sbrk+0x7c>
D:\CreateIC\01_CPIPC\riscv\HME_RISCV_DEMO\VexRiscv_Prj\Firmware\app_prj\app_demo\Debug/../src/Bsp/libwrap/sys/sbrk.c:17
  }

  curbrk += incr;
   10318:	000157b7          	lui	a5,0x15
   1031c:	5587a703          	lw	a4,1368(a5) # 15558 <curbrk.1526>
   10320:	fec42783          	lw	a5,-20(s0)
   10324:	00f70733          	add	a4,a4,a5
   10328:	000157b7          	lui	a5,0x15
   1032c:	54e7ac23          	sw	a4,1368(a5) # 15558 <curbrk.1526>
D:\CreateIC\01_CPIPC\riscv\HME_RISCV_DEMO\VexRiscv_Prj\Firmware\app_prj\app_demo\Debug/../src/Bsp/libwrap/sys/sbrk.c:18
  return curbrk - incr;
   10330:	000157b7          	lui	a5,0x15
   10334:	5587a703          	lw	a4,1368(a5) # 15558 <curbrk.1526>
   10338:	fec42783          	lw	a5,-20(s0)
   1033c:	40f007b3          	neg	a5,a5
   10340:	00f707b3          	add	a5,a4,a5
D:\CreateIC\01_CPIPC\riscv\HME_RISCV_DEMO\VexRiscv_Prj\Firmware\app_prj\app_demo\Debug/../src/Bsp/libwrap/sys/sbrk.c:19
}
   10344:	00078513          	mv	a0,a5
   10348:	01c12403          	lw	s0,28(sp)
   1034c:	02010113          	addi	sp,sp,32
   10350:	00008067          	ret

00010354 <_stub>:
_stub():
D:\CreateIC\01_CPIPC\riscv\RISCV_ENC_20220421\Firmware_true\app_prj\app_demo\Debug/../src/Bsp/libwrap/sys/stub.h:6
{
   10354:	fe010113          	addi	sp,sp,-32
   10358:	00812e23          	sw	s0,28(sp)
   1035c:	02010413          	addi	s0,sp,32
   10360:	fea42623          	sw	a0,-20(s0)
D:\CreateIC\01_CPIPC\riscv\RISCV_ENC_20220421\Firmware_true\app_prj\app_demo\Debug/../src/Bsp/libwrap/sys/stub.h:7
  return -1;
   10364:	fff00793          	li	a5,-1
D:\CreateIC\01_CPIPC\riscv\RISCV_ENC_20220421\Firmware_true\app_prj\app_demo\Debug/../src/Bsp/libwrap/sys/stub.h:8
}
   10368:	00078513          	mv	a0,a5
   1036c:	01c12403          	lw	s0,28(sp)
   10370:	02010113          	addi	sp,sp,32
   10374:	00008067          	ret

00010378 <_write>:
_write():
D:\CreateIC\01_CPIPC\riscv\RISCV_ENC_20220421\Firmware_true\app_prj\app_demo\Debug/../src/Bsp/libwrap/sys/write.c:14
#include "stub.h"

extern ST_UART_ATTR  stUartObj;

ssize_t _write(int fd, const void* ptr, size_t len)
{
   10378:	fd010113          	addi	sp,sp,-48
   1037c:	02112623          	sw	ra,44(sp)
   10380:	02812423          	sw	s0,40(sp)
   10384:	03010413          	addi	s0,sp,48
   10388:	fca42e23          	sw	a0,-36(s0)
   1038c:	fcb42c23          	sw	a1,-40(s0)
   10390:	fcc42a23          	sw	a2,-44(s0)
D:\CreateIC\01_CPIPC\riscv\RISCV_ENC_20220421\Firmware_true\app_prj\app_demo\Debug/../src/Bsp/libwrap/sys/write.c:15
  const uint8_t * current = (const char *)ptr;
   10394:	fd842783          	lw	a5,-40(s0)
   10398:	fef42423          	sw	a5,-24(s0)
D:\CreateIC\01_CPIPC\riscv\RISCV_ENC_20220421\Firmware_true\app_prj\app_demo\Debug/../src/Bsp/libwrap/sys/write.c:16
  uint32_t Data_len = len;
   1039c:	fd442783          	lw	a5,-44(s0)
   103a0:	fef42223          	sw	a5,-28(s0)
D:\CreateIC\01_CPIPC\riscv\RISCV_ENC_20220421\Firmware_true\app_prj\app_demo\Debug/../src/Bsp/libwrap/sys/write.c:18

  if (isatty(fd))
   103a4:	fdc42503          	lw	a0,-36(s0)
   103a8:	4dd030ef          	jal	ra,14084 <isatty>
   103ac:	00050793          	mv	a5,a0
   103b0:	06078a63          	beqz	a5,10424 <_write+0xac>
D:\CreateIC\01_CPIPC\riscv\RISCV_ENC_20220421\Firmware_true\app_prj\app_demo\Debug/../src/Bsp/libwrap/sys/write.c:20
  {
    for (size_t jj = 0; jj < len; jj++)
   103b4:	fe042623          	sw	zero,-20(s0)
   103b8:	0580006f          	j	10410 <_write+0x98>
D:\CreateIC\01_CPIPC\riscv\RISCV_ENC_20220421\Firmware_true\app_prj\app_demo\Debug/../src/Bsp/libwrap/sys/write.c:22
    {
    	  UartByteSend(&stUartObj, current[jj]);
   103bc:	fe842703          	lw	a4,-24(s0)
   103c0:	fec42783          	lw	a5,-20(s0)
   103c4:	00f707b3          	add	a5,a4,a5
   103c8:	0007c783          	lbu	a5,0(a5)
   103cc:	00078593          	mv	a1,a5
   103d0:	000157b7          	lui	a5,0x15
   103d4:	61c78513          	addi	a0,a5,1564 # 1561c <stUartObj>
   103d8:	2dc020ef          	jal	ra,126b4 <UartByteSend>
D:\CreateIC\01_CPIPC\riscv\RISCV_ENC_20220421\Firmware_true\app_prj\app_demo\Debug/../src/Bsp/libwrap/sys/write.c:23
          if (current[jj] == '\n')
   103dc:	fe842703          	lw	a4,-24(s0)
   103e0:	fec42783          	lw	a5,-20(s0)
   103e4:	00f707b3          	add	a5,a4,a5
   103e8:	0007c703          	lbu	a4,0(a5)
   103ec:	00a00793          	li	a5,10
   103f0:	00f71a63          	bne	a4,a5,10404 <_write+0x8c>
D:\CreateIC\01_CPIPC\riscv\RISCV_ENC_20220421\Firmware_true\app_prj\app_demo\Debug/../src/Bsp/libwrap/sys/write.c:25
          {
    	      UartByteSend(&stUartObj, '\r');
   103f4:	00d00593          	li	a1,13
   103f8:	000157b7          	lui	a5,0x15
   103fc:	61c78513          	addi	a0,a5,1564 # 1561c <stUartObj>
   10400:	2b4020ef          	jal	ra,126b4 <UartByteSend>
D:\CreateIC\01_CPIPC\riscv\RISCV_ENC_20220421\Firmware_true\app_prj\app_demo\Debug/../src/Bsp/libwrap/sys/write.c:20 (discriminator 2)
    for (size_t jj = 0; jj < len; jj++)
   10404:	fec42783          	lw	a5,-20(s0)
   10408:	00178793          	addi	a5,a5,1
   1040c:	fef42623          	sw	a5,-20(s0)
D:\CreateIC\01_CPIPC\riscv\RISCV_ENC_20220421\Firmware_true\app_prj\app_demo\Debug/../src/Bsp/libwrap/sys/write.c:20 (discriminator 1)
   10410:	fec42703          	lw	a4,-20(s0)
   10414:	fd442783          	lw	a5,-44(s0)
   10418:	faf762e3          	bltu	a4,a5,103bc <_write+0x44>
D:\CreateIC\01_CPIPC\riscv\RISCV_ENC_20220421\Firmware_true\app_prj\app_demo\Debug/../src/Bsp/libwrap/sys/write.c:28
          }
    }
    return len;
   1041c:	fd442783          	lw	a5,-44(s0)
   10420:	0100006f          	j	10430 <_write+0xb8>
D:\CreateIC\01_CPIPC\riscv\RISCV_ENC_20220421\Firmware_true\app_prj\app_demo\Debug/../src/Bsp/libwrap/sys/write.c:31
  }

  return _stub(EBADF);
   10424:	00900513          	li	a0,9
   10428:	f2dff0ef          	jal	ra,10354 <_stub>
   1042c:	00050793          	mv	a5,a0
D:\CreateIC\01_CPIPC\riscv\RISCV_ENC_20220421\Firmware_true\app_prj\app_demo\Debug/../src/Bsp/libwrap/sys/write.c:32
}
   10430:	00078513          	mv	a0,a5
   10434:	02c12083          	lw	ra,44(sp)
   10438:	02812403          	lw	s0,40(sp)
   1043c:	03010113          	addi	sp,sp,48
   10440:	00008067          	ret

00010444 <GpioStructDeInit>:
GpioStructDeInit():
D:\CreateIC\01_CPIPC\riscv\RISCV_ENC_20220421\Firmware_true\app_prj\app_demo\Debug/../src/Bsp/Driver/hme_gpio.c:35
  * @brief  GPIO结构体默认初始化
  * @param  pstGpioObj:GPIO设备对象
  * @retval 无
*****************************************************************/
void GpioStructDeInit(PST_GPIO_ATTR pstGpioObj)
{
   10444:	fe010113          	addi	sp,sp,-32
   10448:	00112e23          	sw	ra,28(sp)
   1044c:	00812c23          	sw	s0,24(sp)
   10450:	02010413          	addi	s0,sp,32
   10454:	fea42623          	sw	a0,-20(s0)
D:\CreateIC\01_CPIPC\riscv\RISCV_ENC_20220421\Firmware_true\app_prj\app_demo\Debug/../src/Bsp/Driver/hme_gpio.c:36
	assert_param(NULL != pstGpioObj);
   10458:	fec42783          	lw	a5,-20(s0)
   1045c:	00079a63          	bnez	a5,10470 <GpioStructDeInit+0x2c>
D:\CreateIC\01_CPIPC\riscv\RISCV_ENC_20220421\Firmware_true\app_prj\app_demo\Debug/../src/Bsp/Driver/hme_gpio.c:36 (discriminator 1)
   10460:	02400593          	li	a1,36
   10464:	000157b7          	lui	a5,0x15
   10468:	0c478513          	addi	a0,a5,196 # 150c4 <__init_array_end>
   1046c:	76d020ef          	jal	ra,133d8 <assert_failed>
D:\CreateIC\01_CPIPC\riscv\RISCV_ENC_20220421\Firmware_true\app_prj\app_demo\Debug/../src/Bsp/Driver/hme_gpio.c:38

	pstGpioObj->stCfgParam.usDevId      = DEF_GPIO_DEV_ID;
   10470:	fec42783          	lw	a5,-20(s0)
   10474:	00b00713          	li	a4,11
   10478:	00e79023          	sh	a4,0(a5)
D:\CreateIC\01_CPIPC\riscv\RISCV_ENC_20220421\Firmware_true\app_prj\app_demo\Debug/../src/Bsp/Driver/hme_gpio.c:39
	pstGpioObj->stCfgParam.ucDirection  = EN_GPIO_DIR_TYPE_OUT;
   1047c:	fec42783          	lw	a5,-20(s0)
   10480:	00100713          	li	a4,1
   10484:	00e78123          	sb	a4,2(a5)
D:\CreateIC\01_CPIPC\riscv\RISCV_ENC_20220421\Firmware_true\app_prj\app_demo\Debug/../src/Bsp/Driver/hme_gpio.c:40
	pstGpioObj->stCfgParam.ucIntrEn     = DISABLE;
   10488:	fec42783          	lw	a5,-20(s0)
   1048c:	000781a3          	sb	zero,3(a5)
D:\CreateIC\01_CPIPC\riscv\RISCV_ENC_20220421\Firmware_true\app_prj\app_demo\Debug/../src/Bsp/Driver/hme_gpio.c:41
	pstGpioObj->stCfgParam.ucIntrMode   = EN_GPIO_INTR_MODE_NO_OP;
   10490:	fec42783          	lw	a5,-20(s0)
   10494:	00078223          	sb	zero,4(a5)
D:\CreateIC\01_CPIPC\riscv\RISCV_ENC_20220421\Firmware_true\app_prj\app_demo\Debug/../src/Bsp/Driver/hme_gpio.c:42
	pstGpioObj->stCfgParam.ucPullEn     = DISABLE;
   10498:	fec42783          	lw	a5,-20(s0)
   1049c:	000782a3          	sb	zero,5(a5)
D:\CreateIC\01_CPIPC\riscv\RISCV_ENC_20220421\Firmware_true\app_prj\app_demo\Debug/../src/Bsp/Driver/hme_gpio.c:43
	pstGpioObj->stCfgParam.ucPullType   = EN_GPIO_PULL_TYPE_UP;
   104a0:	fec42783          	lw	a5,-20(s0)
   104a4:	00078323          	sb	zero,6(a5)
D:\CreateIC\01_CPIPC\riscv\RISCV_ENC_20220421\Firmware_true\app_prj\app_demo\Debug/../src/Bsp/Driver/hme_gpio.c:44
	pstGpioObj->stCfgParam.ucDbBounceEn = DISABLE;
   104a8:	fec42783          	lw	a5,-20(s0)
   104ac:	000783a3          	sb	zero,7(a5)
D:\CreateIC\01_CPIPC\riscv\RISCV_ENC_20220421\Firmware_true\app_prj\app_demo\Debug/../src/Bsp/Driver/hme_gpio.c:45
	pstGpioObj->stCfgParam.ucDBClkSel   = EN_GPIO_DBCLK_TYPE_EXT;
   104b0:	fec42783          	lw	a5,-20(s0)
   104b4:	00078423          	sb	zero,8(a5)
D:\CreateIC\01_CPIPC\riscv\RISCV_ENC_20220421\Firmware_true\app_prj\app_demo\Debug/../src/Bsp/Driver/hme_gpio.c:46
	pstGpioObj->stCfgParam.DBPreScale   = 0;
   104b8:	fec42783          	lw	a5,-20(s0)
   104bc:	000784a3          	sb	zero,9(a5)
D:\CreateIC\01_CPIPC\riscv\RISCV_ENC_20220421\Firmware_true\app_prj\app_demo\Debug/../src/Bsp/Driver/hme_gpio.c:47
	pstGpioObj->stCfgParam.ulChannels   = GPIO_Pin_All;
   104c0:	fec42783          	lw	a5,-20(s0)
   104c4:	fff00713          	li	a4,-1
   104c8:	00e7a623          	sw	a4,12(a5)
D:\CreateIC\01_CPIPC\riscv\RISCV_ENC_20220421\Firmware_true\app_prj\app_demo\Debug/../src/Bsp/Driver/hme_gpio.c:49

	pstGpioObj->stPlicCfgParam.ucIntrEnFlage = DISABLE;
   104cc:	fec42783          	lw	a5,-20(s0)
   104d0:	00078823          	sb	zero,16(a5)
D:\CreateIC\01_CPIPC\riscv\RISCV_ENC_20220421\Firmware_true\app_prj\app_demo\Debug/../src/Bsp/Driver/hme_gpio.c:50
	pstGpioObj->stPlicCfgParam.ucPriority = EN_PRIORITY_2;
   104d4:	fec42783          	lw	a5,-20(s0)
   104d8:	00200713          	li	a4,2
   104dc:	00e788a3          	sb	a4,17(a5)
D:\CreateIC\01_CPIPC\riscv\RISCV_ENC_20220421\Firmware_true\app_prj\app_demo\Debug/../src/Bsp/Driver/hme_gpio.c:52

	pstGpioObj->pstCtrller = DEV_GPIO;
   104e0:	fec42783          	lw	a5,-20(s0)
   104e4:	f8002737          	lui	a4,0xf8002
   104e8:	00e7aa23          	sw	a4,20(a5)
D:\CreateIC\01_CPIPC\riscv\RISCV_ENC_20220421\Firmware_true\app_prj\app_demo\Debug/../src/Bsp/Driver/hme_gpio.c:53
}
   104ec:	00000013          	nop
   104f0:	01c12083          	lw	ra,28(sp)
   104f4:	01812403          	lw	s0,24(sp)
   104f8:	02010113          	addi	sp,sp,32
   104fc:	00008067          	ret

00010500 <GpioObjConfigInit>:
GpioObjConfigInit():
D:\CreateIC\01_CPIPC\riscv\RISCV_ENC_20220421\Firmware_true\app_prj\app_demo\Debug/../src/Bsp/Driver/hme_gpio.c:92
 * @brief  GPIO结构体控制器配置
 * @param  pstGpioObj：配置的GPIO对象
 * @retval 无
*****************************************************************/
void GpioObjConfigInit(PST_GPIO_ATTR pstGpioObj)
{
   10500:	fd010113          	addi	sp,sp,-48
   10504:	02112623          	sw	ra,44(sp)
   10508:	02812423          	sw	s0,40(sp)
   1050c:	03010413          	addi	s0,sp,48
   10510:	fca42e23          	sw	a0,-36(s0)
D:\CreateIC\01_CPIPC\riscv\RISCV_ENC_20220421\Firmware_true\app_prj\app_demo\Debug/../src/Bsp/Driver/hme_gpio.c:93
	assert_param(NULL != pstGpioObj);
   10514:	fdc42783          	lw	a5,-36(s0)
   10518:	00079a63          	bnez	a5,1052c <GpioObjConfigInit+0x2c>
D:\CreateIC\01_CPIPC\riscv\RISCV_ENC_20220421\Firmware_true\app_prj\app_demo\Debug/../src/Bsp/Driver/hme_gpio.c:93 (discriminator 1)
   1051c:	05d00593          	li	a1,93
   10520:	000157b7          	lui	a5,0x15
   10524:	0c478513          	addi	a0,a5,196 # 150c4 <__init_array_end>
   10528:	6b1020ef          	jal	ra,133d8 <assert_failed>
D:\CreateIC\01_CPIPC\riscv\RISCV_ENC_20220421\Firmware_true\app_prj\app_demo\Debug/../src/Bsp/Driver/hme_gpio.c:94
	assert_param(NULL != pstGpioObj->pstCtrller);
   1052c:	fdc42783          	lw	a5,-36(s0)
   10530:	0147a783          	lw	a5,20(a5)
   10534:	00079a63          	bnez	a5,10548 <GpioObjConfigInit+0x48>
D:\CreateIC\01_CPIPC\riscv\RISCV_ENC_20220421\Firmware_true\app_prj\app_demo\Debug/../src/Bsp/Driver/hme_gpio.c:94 (discriminator 1)
   10538:	05e00593          	li	a1,94
   1053c:	000157b7          	lui	a5,0x15
   10540:	0c478513          	addi	a0,a5,196 # 150c4 <__init_array_end>
   10544:	695020ef          	jal	ra,133d8 <assert_failed>
D:\CreateIC\01_CPIPC\riscv\RISCV_ENC_20220421\Firmware_true\app_prj\app_demo\Debug/../src/Bsp/Driver/hme_gpio.c:96

	uint32_t ulGpioEnVal= 0;
   10548:	fe042623          	sw	zero,-20(s0)
D:\CreateIC\01_CPIPC\riscv\RISCV_ENC_20220421\Firmware_true\app_prj\app_demo\Debug/../src/Bsp/Driver/hme_gpio.c:97
	ST_PLIC_REG_PARAM stGpioRegParam = {0};
   1054c:	fe042023          	sw	zero,-32(s0)
   10550:	fe042223          	sw	zero,-28(s0)
   10554:	fe042423          	sw	zero,-24(s0)
D:\CreateIC\01_CPIPC\riscv\RISCV_ENC_20220421\Firmware_true\app_prj\app_demo\Debug/../src/Bsp/Driver/hme_gpio.c:100

	//PLIC中断使能和注册
	ulGpioEnVal = DevIntrEnTableGet(pstGpioObj->stCfgParam.usDevId);
   10558:	fdc42783          	lw	a5,-36(s0)
   1055c:	0007d783          	lhu	a5,0(a5)
   10560:	00078513          	mv	a0,a5
   10564:	5e9000ef          	jal	ra,1134c <DevIntrEnTableGet>
   10568:	fea42623          	sw	a0,-20(s0)
D:\CreateIC\01_CPIPC\riscv\RISCV_ENC_20220421\Firmware_true\app_prj\app_demo\Debug/../src/Bsp/Driver/hme_gpio.c:101
	stGpioRegParam.usIntrId = DevIntrIdTableGet(pstGpioObj->stCfgParam.usDevId);
   1056c:	fdc42783          	lw	a5,-36(s0)
   10570:	0007d783          	lhu	a5,0(a5)
   10574:	00078513          	mv	a0,a5
   10578:	3fd000ef          	jal	ra,11174 <DevIntrIdTableGet>
   1057c:	00050793          	mv	a5,a0
   10580:	fef41023          	sh	a5,-32(s0)
D:\CreateIC\01_CPIPC\riscv\RISCV_ENC_20220421\Firmware_true\app_prj\app_demo\Debug/../src/Bsp/Driver/hme_gpio.c:102
	stGpioRegParam.IntrHander = PlicGpioHandle;
   10584:	000117b7          	lui	a5,0x11
   10588:	fd078793          	addi	a5,a5,-48 # 10fd0 <PlicGpioHandle>
   1058c:	fef42223          	sw	a5,-28(s0)
D:\CreateIC\01_CPIPC\riscv\RISCV_ENC_20220421\Firmware_true\app_prj\app_demo\Debug/../src/Bsp/Driver/hme_gpio.c:103
	stGpioRegParam.ptrBackCall = pstGpioObj;
   10590:	fdc42783          	lw	a5,-36(s0)
   10594:	fef42423          	sw	a5,-24(s0)
D:\CreateIC\01_CPIPC\riscv\RISCV_ENC_20220421\Firmware_true\app_prj\app_demo\Debug/../src/Bsp/Driver/hme_gpio.c:104
	if (pstGpioObj->stPlicCfgParam.ucIntrEnFlage)
   10598:	fdc42783          	lw	a5,-36(s0)
   1059c:	0107c783          	lbu	a5,16(a5)
   105a0:	04078063          	beqz	a5,105e0 <GpioObjConfigInit+0xe0>
D:\CreateIC\01_CPIPC\riscv\RISCV_ENC_20220421\Firmware_true\app_prj\app_demo\Debug/../src/Bsp/Driver/hme_gpio.c:107
	{
		//intr Priority set
		IntrPrioritySet(pstGpioObj->stCfgParam.usDevId, pstGpioObj->stPlicCfgParam.ucPriority);
   105a4:	fdc42783          	lw	a5,-36(s0)
   105a8:	0007d703          	lhu	a4,0(a5)
   105ac:	fdc42783          	lw	a5,-36(s0)
   105b0:	0117c783          	lbu	a5,17(a5)
   105b4:	00078593          	mv	a1,a5
   105b8:	00070513          	mv	a0,a4
   105bc:	67d000ef          	jal	ra,11438 <IntrPrioritySet>
D:\CreateIC\01_CPIPC\riscv\RISCV_ENC_20220421\Firmware_true\app_prj\app_demo\Debug/../src/Bsp/Driver/hme_gpio.c:109
        //intr handle register
		PlicIntrHandleRegister(&stGpioRegParam, pstGpioObj->stCfgParam.usDevId);
   105c0:	fdc42783          	lw	a5,-36(s0)
   105c4:	0007d703          	lhu	a4,0(a5)
   105c8:	fe040793          	addi	a5,s0,-32
   105cc:	00070593          	mv	a1,a4
   105d0:	00078513          	mv	a0,a5
   105d4:	1c4010ef          	jal	ra,11798 <PlicIntrHandleRegister>
D:\CreateIC\01_CPIPC\riscv\RISCV_ENC_20220421\Firmware_true\app_prj\app_demo\Debug/../src/Bsp/Driver/hme_gpio.c:111
		//intr handle enable
		PlicEnableSet(ulGpioEnVal);
   105d8:	fec42503          	lw	a0,-20(s0)
   105dc:	0ac010ef          	jal	ra,11688 <PlicEnableSet>
D:\CreateIC\01_CPIPC\riscv\RISCV_ENC_20220421\Firmware_true\app_prj\app_demo\Debug/../src/Bsp/Driver/hme_gpio.c:115
	}

	//GPIO方向配置
	GpioBitsDirCfg(pstGpioObj);
   105e0:	fdc42503          	lw	a0,-36(s0)
   105e4:	030000ef          	jal	ra,10614 <GpioBitsDirCfg>
D:\CreateIC\01_CPIPC\riscv\RISCV_ENC_20220421\Firmware_true\app_prj\app_demo\Debug/../src/Bsp/Driver/hme_gpio.c:117
	//GPIO中断配置
	GpioBitsIntrCfg(pstGpioObj);
   105e8:	fdc42503          	lw	a0,-36(s0)
   105ec:	594000ef          	jal	ra,10b80 <GpioBitsIntrCfg>
D:\CreateIC\01_CPIPC\riscv\RISCV_ENC_20220421\Firmware_true\app_prj\app_demo\Debug/../src/Bsp/Driver/hme_gpio.c:119
	//GPIO上下拉配置
	GpioBitsPullCfg(pstGpioObj);
   105f0:	fdc42503          	lw	a0,-36(s0)
   105f4:	210000ef          	jal	ra,10804 <GpioBitsPullCfg>
D:\CreateIC\01_CPIPC\riscv\RISCV_ENC_20220421\Firmware_true\app_prj\app_demo\Debug/../src/Bsp/Driver/hme_gpio.c:121
	//中断防抖配置
	GpioBitsDebounceCfg(pstGpioObj);
   105f8:	fdc42503          	lw	a0,-36(s0)
   105fc:	3b8000ef          	jal	ra,109b4 <GpioBitsDebounceCfg>
D:\CreateIC\01_CPIPC\riscv\RISCV_ENC_20220421\Firmware_true\app_prj\app_demo\Debug/../src/Bsp/Driver/hme_gpio.c:122
}
   10600:	00000013          	nop
   10604:	02c12083          	lw	ra,44(sp)
   10608:	02812403          	lw	s0,40(sp)
   1060c:	03010113          	addi	sp,sp,48
   10610:	00008067          	ret

00010614 <GpioBitsDirCfg>:
GpioBitsDirCfg():
D:\CreateIC\01_CPIPC\riscv\RISCV_ENC_20220421\Firmware_true\app_prj\app_demo\Debug/../src/Bsp/Driver/hme_gpio.c:142
 * @brief  GPIO引脚的方向配置
 * @param  pstGpioObj：GPIO设备参数
 * @retval 无
 *****************************************************************/
void GpioBitsDirCfg(PST_GPIO_ATTR pstGpioObj)
{
   10614:	fd010113          	addi	sp,sp,-48
   10618:	02112623          	sw	ra,44(sp)
   1061c:	02812423          	sw	s0,40(sp)
   10620:	03010413          	addi	s0,sp,48
   10624:	fca42e23          	sw	a0,-36(s0)
D:\CreateIC\01_CPIPC\riscv\RISCV_ENC_20220421\Firmware_true\app_prj\app_demo\Debug/../src/Bsp/Driver/hme_gpio.c:143
	assert_param(NULL != pstGpioObj);
   10628:	fdc42783          	lw	a5,-36(s0)
   1062c:	00079a63          	bnez	a5,10640 <GpioBitsDirCfg+0x2c>
D:\CreateIC\01_CPIPC\riscv\RISCV_ENC_20220421\Firmware_true\app_prj\app_demo\Debug/../src/Bsp/Driver/hme_gpio.c:143 (discriminator 1)
   10630:	08f00593          	li	a1,143
   10634:	000157b7          	lui	a5,0x15
   10638:	0c478513          	addi	a0,a5,196 # 150c4 <__init_array_end>
   1063c:	59d020ef          	jal	ra,133d8 <assert_failed>
D:\CreateIC\01_CPIPC\riscv\RISCV_ENC_20220421\Firmware_true\app_prj\app_demo\Debug/../src/Bsp/Driver/hme_gpio.c:144
	assert_param(NULL != pstGpioObj->pstCtrller);
   10640:	fdc42783          	lw	a5,-36(s0)
   10644:	0147a783          	lw	a5,20(a5)
   10648:	00079a63          	bnez	a5,1065c <GpioBitsDirCfg+0x48>
D:\CreateIC\01_CPIPC\riscv\RISCV_ENC_20220421\Firmware_true\app_prj\app_demo\Debug/../src/Bsp/Driver/hme_gpio.c:144 (discriminator 1)
   1064c:	09000593          	li	a1,144
   10650:	000157b7          	lui	a5,0x15
   10654:	0c478513          	addi	a0,a5,196 # 150c4 <__init_array_end>
   10658:	581020ef          	jal	ra,133d8 <assert_failed>
D:\CreateIC\01_CPIPC\riscv\RISCV_ENC_20220421\Firmware_true\app_prj\app_demo\Debug/../src/Bsp/Driver/hme_gpio.c:146

	uint32_t ulTemParam = 0;
   1065c:	fe042623          	sw	zero,-20(s0)
D:\CreateIC\01_CPIPC\riscv\RISCV_ENC_20220421\Firmware_true\app_prj\app_demo\Debug/../src/Bsp/Driver/hme_gpio.c:147
	uint8_t  ucDirFlag  = pstGpioObj->stCfgParam.ucDirection;
   10660:	fdc42783          	lw	a5,-36(s0)
   10664:	0027c783          	lbu	a5,2(a5)
   10668:	fef405a3          	sb	a5,-21(s0)
D:\CreateIC\01_CPIPC\riscv\RISCV_ENC_20220421\Firmware_true\app_prj\app_demo\Debug/../src/Bsp/Driver/hme_gpio.c:148
	uint32_t ulChannels   = pstGpioObj->stCfgParam.ulChannels;
   1066c:	fdc42783          	lw	a5,-36(s0)
   10670:	00c7a783          	lw	a5,12(a5)
   10674:	fef42223          	sw	a5,-28(s0)
D:\CreateIC\01_CPIPC\riscv\RISCV_ENC_20220421\Firmware_true\app_prj\app_demo\Debug/../src/Bsp/Driver/hme_gpio.c:150

	assert_param(IS_GPIO_DIR_TYPE(ucDirFlag));
   10678:	feb44783          	lbu	a5,-21(s0)
   1067c:	02078063          	beqz	a5,1069c <GpioBitsDirCfg+0x88>
D:\CreateIC\01_CPIPC\riscv\RISCV_ENC_20220421\Firmware_true\app_prj\app_demo\Debug/../src/Bsp/Driver/hme_gpio.c:150 (discriminator 1)
   10680:	feb44703          	lbu	a4,-21(s0)
   10684:	00100793          	li	a5,1
   10688:	00f70a63          	beq	a4,a5,1069c <GpioBitsDirCfg+0x88>
D:\CreateIC\01_CPIPC\riscv\RISCV_ENC_20220421\Firmware_true\app_prj\app_demo\Debug/../src/Bsp/Driver/hme_gpio.c:150 (discriminator 2)
   1068c:	09600593          	li	a1,150
   10690:	000157b7          	lui	a5,0x15
   10694:	0c478513          	addi	a0,a5,196 # 150c4 <__init_array_end>
   10698:	541020ef          	jal	ra,133d8 <assert_failed>
D:\CreateIC\01_CPIPC\riscv\RISCV_ENC_20220421\Firmware_true\app_prj\app_demo\Debug/../src/Bsp/Driver/hme_gpio.c:152

	ulTemParam = pstGpioObj->pstCtrller->CHANNELDIR;
   1069c:	fdc42783          	lw	a5,-36(s0)
   106a0:	0147a783          	lw	a5,20(a5)
   106a4:	0287a783          	lw	a5,40(a5)
   106a8:	fef42623          	sw	a5,-20(s0)
D:\CreateIC\01_CPIPC\riscv\RISCV_ENC_20220421\Firmware_true\app_prj\app_demo\Debug/../src/Bsp/Driver/hme_gpio.c:154

	if (ucDirFlag == EN_GPIO_DIR_TYPE_OUT)
   106ac:	feb44703          	lbu	a4,-21(s0)
   106b0:	00100793          	li	a5,1
   106b4:	02f71463          	bne	a4,a5,106dc <GpioBitsDirCfg+0xc8>
D:\CreateIC\01_CPIPC\riscv\RISCV_ENC_20220421\Firmware_true\app_prj\app_demo\Debug/../src/Bsp/Driver/hme_gpio.c:156
	{
		ulTemParam = ulTemParam | ulChannels;
   106b8:	fec42703          	lw	a4,-20(s0)
   106bc:	fe442783          	lw	a5,-28(s0)
   106c0:	00f767b3          	or	a5,a4,a5
   106c4:	fef42623          	sw	a5,-20(s0)
D:\CreateIC\01_CPIPC\riscv\RISCV_ENC_20220421\Firmware_true\app_prj\app_demo\Debug/../src/Bsp/Driver/hme_gpio.c:157
		pstGpioObj->pstCtrller->CHANNELDIR = ulTemParam;
   106c8:	fdc42783          	lw	a5,-36(s0)
   106cc:	0147a783          	lw	a5,20(a5)
   106d0:	fec42703          	lw	a4,-20(s0)
   106d4:	02e7a423          	sw	a4,40(a5)
D:\CreateIC\01_CPIPC\riscv\RISCV_ENC_20220421\Firmware_true\app_prj\app_demo\Debug/../src/Bsp/Driver/hme_gpio.c:164
	else
	{
		ulTemParam = (ulTemParam & (~ulChannels));
		pstGpioObj->pstCtrller->CHANNELDIR = ulTemParam;
	}
}
   106d8:	0280006f          	j	10700 <GpioBitsDirCfg+0xec>
D:\CreateIC\01_CPIPC\riscv\RISCV_ENC_20220421\Firmware_true\app_prj\app_demo\Debug/../src/Bsp/Driver/hme_gpio.c:161
		ulTemParam = (ulTemParam & (~ulChannels));
   106dc:	fe442783          	lw	a5,-28(s0)
   106e0:	fff7c793          	not	a5,a5
   106e4:	fec42703          	lw	a4,-20(s0)
   106e8:	00f777b3          	and	a5,a4,a5
   106ec:	fef42623          	sw	a5,-20(s0)
D:\CreateIC\01_CPIPC\riscv\RISCV_ENC_20220421\Firmware_true\app_prj\app_demo\Debug/../src/Bsp/Driver/hme_gpio.c:162
		pstGpioObj->pstCtrller->CHANNELDIR = ulTemParam;
   106f0:	fdc42783          	lw	a5,-36(s0)
   106f4:	0147a783          	lw	a5,20(a5)
   106f8:	fec42703          	lw	a4,-20(s0)
   106fc:	02e7a423          	sw	a4,40(a5)
D:\CreateIC\01_CPIPC\riscv\RISCV_ENC_20220421\Firmware_true\app_prj\app_demo\Debug/../src/Bsp/Driver/hme_gpio.c:164
}
   10700:	00000013          	nop
   10704:	02c12083          	lw	ra,44(sp)
   10708:	02812403          	lw	s0,40(sp)
   1070c:	03010113          	addi	sp,sp,48
   10710:	00008067          	ret

00010714 <GpioBitsDoutSet>:
GpioBitsDoutSet():
D:\CreateIC\01_CPIPC\riscv\RISCV_ENC_20220421\Firmware_true\app_prj\app_demo\Debug/../src/Bsp/Driver/hme_gpio.c:184
 * @brief  GPIO端口输出设置
 * @param  pstGpioObj：GPIO设备对象
 * @retval 无
 *****************************************************************/
void GpioBitsDoutSet(PST_GPIO_ATTR pstGpioObj)
{
   10714:	fd010113          	addi	sp,sp,-48
   10718:	02112623          	sw	ra,44(sp)
   1071c:	02812423          	sw	s0,40(sp)
   10720:	03010413          	addi	s0,sp,48
   10724:	fca42e23          	sw	a0,-36(s0)
D:\CreateIC\01_CPIPC\riscv\RISCV_ENC_20220421\Firmware_true\app_prj\app_demo\Debug/../src/Bsp/Driver/hme_gpio.c:185
	assert_param(NULL != pstGpioObj);
   10728:	fdc42783          	lw	a5,-36(s0)
   1072c:	00079a63          	bnez	a5,10740 <GpioBitsDoutSet+0x2c>
D:\CreateIC\01_CPIPC\riscv\RISCV_ENC_20220421\Firmware_true\app_prj\app_demo\Debug/../src/Bsp/Driver/hme_gpio.c:185 (discriminator 1)
   10730:	0b900593          	li	a1,185
   10734:	000157b7          	lui	a5,0x15
   10738:	0c478513          	addi	a0,a5,196 # 150c4 <__init_array_end>
   1073c:	49d020ef          	jal	ra,133d8 <assert_failed>
D:\CreateIC\01_CPIPC\riscv\RISCV_ENC_20220421\Firmware_true\app_prj\app_demo\Debug/../src/Bsp/Driver/hme_gpio.c:186
	assert_param(NULL != pstGpioObj->pstCtrller);
   10740:	fdc42783          	lw	a5,-36(s0)
   10744:	0147a783          	lw	a5,20(a5)
   10748:	00079a63          	bnez	a5,1075c <GpioBitsDoutSet+0x48>
D:\CreateIC\01_CPIPC\riscv\RISCV_ENC_20220421\Firmware_true\app_prj\app_demo\Debug/../src/Bsp/Driver/hme_gpio.c:186 (discriminator 1)
   1074c:	0ba00593          	li	a1,186
   10750:	000157b7          	lui	a5,0x15
   10754:	0c478513          	addi	a0,a5,196 # 150c4 <__init_array_end>
   10758:	481020ef          	jal	ra,133d8 <assert_failed>
D:\CreateIC\01_CPIPC\riscv\RISCV_ENC_20220421\Firmware_true\app_prj\app_demo\Debug/../src/Bsp/Driver/hme_gpio.c:188

	uint32_t ulChannels = pstGpioObj->stCfgParam.ulChannels;
   1075c:	fdc42783          	lw	a5,-36(s0)
   10760:	00c7a783          	lw	a5,12(a5)
   10764:	fef42623          	sw	a5,-20(s0)
D:\CreateIC\01_CPIPC\riscv\RISCV_ENC_20220421\Firmware_true\app_prj\app_demo\Debug/../src/Bsp/Driver/hme_gpio.c:189
	pstGpioObj->pstCtrller->DOUTSET = ulChannels;
   10768:	fdc42783          	lw	a5,-36(s0)
   1076c:	0147a783          	lw	a5,20(a5)
   10770:	fec42703          	lw	a4,-20(s0)
   10774:	02e7a823          	sw	a4,48(a5)
D:\CreateIC\01_CPIPC\riscv\RISCV_ENC_20220421\Firmware_true\app_prj\app_demo\Debug/../src/Bsp/Driver/hme_gpio.c:190
}
   10778:	00000013          	nop
   1077c:	02c12083          	lw	ra,44(sp)
   10780:	02812403          	lw	s0,40(sp)
   10784:	03010113          	addi	sp,sp,48
   10788:	00008067          	ret

0001078c <GpioBitsDoutClear>:
GpioBitsDoutClear():
D:\CreateIC\01_CPIPC\riscv\RISCV_ENC_20220421\Firmware_true\app_prj\app_demo\Debug/../src/Bsp/Driver/hme_gpio.c:198
 * @brief  GPIO端口输出清零
 * @param  pstGpioObj：GPIO设备对象
 * @retval 无
 *****************************************************************/
void GpioBitsDoutClear(PST_GPIO_ATTR pstGpioObj)
{
   1078c:	fd010113          	addi	sp,sp,-48
   10790:	02112623          	sw	ra,44(sp)
   10794:	02812423          	sw	s0,40(sp)
   10798:	03010413          	addi	s0,sp,48
   1079c:	fca42e23          	sw	a0,-36(s0)
D:\CreateIC\01_CPIPC\riscv\RISCV_ENC_20220421\Firmware_true\app_prj\app_demo\Debug/../src/Bsp/Driver/hme_gpio.c:199
	assert_param(NULL != pstGpioObj);
   107a0:	fdc42783          	lw	a5,-36(s0)
   107a4:	00079a63          	bnez	a5,107b8 <GpioBitsDoutClear+0x2c>
D:\CreateIC\01_CPIPC\riscv\RISCV_ENC_20220421\Firmware_true\app_prj\app_demo\Debug/../src/Bsp/Driver/hme_gpio.c:199 (discriminator 1)
   107a8:	0c700593          	li	a1,199
   107ac:	000157b7          	lui	a5,0x15
   107b0:	0c478513          	addi	a0,a5,196 # 150c4 <__init_array_end>
   107b4:	425020ef          	jal	ra,133d8 <assert_failed>
D:\CreateIC\01_CPIPC\riscv\RISCV_ENC_20220421\Firmware_true\app_prj\app_demo\Debug/../src/Bsp/Driver/hme_gpio.c:200
	assert_param(NULL != pstGpioObj->pstCtrller);
   107b8:	fdc42783          	lw	a5,-36(s0)
   107bc:	0147a783          	lw	a5,20(a5)
   107c0:	00079a63          	bnez	a5,107d4 <GpioBitsDoutClear+0x48>
D:\CreateIC\01_CPIPC\riscv\RISCV_ENC_20220421\Firmware_true\app_prj\app_demo\Debug/../src/Bsp/Driver/hme_gpio.c:200 (discriminator 1)
   107c4:	0c800593          	li	a1,200
   107c8:	000157b7          	lui	a5,0x15
   107cc:	0c478513          	addi	a0,a5,196 # 150c4 <__init_array_end>
   107d0:	409020ef          	jal	ra,133d8 <assert_failed>
D:\CreateIC\01_CPIPC\riscv\RISCV_ENC_20220421\Firmware_true\app_prj\app_demo\Debug/../src/Bsp/Driver/hme_gpio.c:202

	uint32_t ulChannels   = pstGpioObj->stCfgParam.ulChannels;
   107d4:	fdc42783          	lw	a5,-36(s0)
   107d8:	00c7a783          	lw	a5,12(a5)
   107dc:	fef42623          	sw	a5,-20(s0)
D:\CreateIC\01_CPIPC\riscv\RISCV_ENC_20220421\Firmware_true\app_prj\app_demo\Debug/../src/Bsp/Driver/hme_gpio.c:203
	pstGpioObj->pstCtrller->DOUTCLEAR = ulChannels;
   107e0:	fdc42783          	lw	a5,-36(s0)
   107e4:	0147a783          	lw	a5,20(a5)
   107e8:	fec42703          	lw	a4,-20(s0)
   107ec:	02e7a623          	sw	a4,44(a5)
D:\CreateIC\01_CPIPC\riscv\RISCV_ENC_20220421\Firmware_true\app_prj\app_demo\Debug/../src/Bsp/Driver/hme_gpio.c:204
}
   107f0:	00000013          	nop
   107f4:	02c12083          	lw	ra,44(sp)
   107f8:	02812403          	lw	s0,40(sp)
   107fc:	03010113          	addi	sp,sp,48
   10800:	00008067          	ret

00010804 <GpioBitsPullCfg>:
GpioBitsPullCfg():
D:\CreateIC\01_CPIPC\riscv\RISCV_ENC_20220421\Firmware_true\app_prj\app_demo\Debug/../src/Bsp/Driver/hme_gpio.c:238
 * @brief  GPIO上下拉属性配置
 * @param  pstGpioObj：GPIO设备对象
 * @retval 无
 *****************************************************************/
void GpioBitsPullCfg(PST_GPIO_ATTR pstGpioObj)
{
   10804:	fd010113          	addi	sp,sp,-48
   10808:	02112623          	sw	ra,44(sp)
   1080c:	02812423          	sw	s0,40(sp)
   10810:	03010413          	addi	s0,sp,48
   10814:	fca42e23          	sw	a0,-36(s0)
D:\CreateIC\01_CPIPC\riscv\RISCV_ENC_20220421\Firmware_true\app_prj\app_demo\Debug/../src/Bsp/Driver/hme_gpio.c:239
	assert_param(NULL != pstGpioObj);
   10818:	fdc42783          	lw	a5,-36(s0)
   1081c:	00079a63          	bnez	a5,10830 <GpioBitsPullCfg+0x2c>
D:\CreateIC\01_CPIPC\riscv\RISCV_ENC_20220421\Firmware_true\app_prj\app_demo\Debug/../src/Bsp/Driver/hme_gpio.c:239 (discriminator 1)
   10820:	0ef00593          	li	a1,239
   10824:	000157b7          	lui	a5,0x15
   10828:	0c478513          	addi	a0,a5,196 # 150c4 <__init_array_end>
   1082c:	3ad020ef          	jal	ra,133d8 <assert_failed>
D:\CreateIC\01_CPIPC\riscv\RISCV_ENC_20220421\Firmware_true\app_prj\app_demo\Debug/../src/Bsp/Driver/hme_gpio.c:240
	assert_param(NULL != pstGpioObj->pstCtrller);
   10830:	fdc42783          	lw	a5,-36(s0)
   10834:	0147a783          	lw	a5,20(a5)
   10838:	00079a63          	bnez	a5,1084c <GpioBitsPullCfg+0x48>
D:\CreateIC\01_CPIPC\riscv\RISCV_ENC_20220421\Firmware_true\app_prj\app_demo\Debug/../src/Bsp/Driver/hme_gpio.c:240 (discriminator 1)
   1083c:	0f000593          	li	a1,240
   10840:	000157b7          	lui	a5,0x15
   10844:	0c478513          	addi	a0,a5,196 # 150c4 <__init_array_end>
   10848:	391020ef          	jal	ra,133d8 <assert_failed>
D:\CreateIC\01_CPIPC\riscv\RISCV_ENC_20220421\Firmware_true\app_prj\app_demo\Debug/../src/Bsp/Driver/hme_gpio.c:242

	uint32_t ulTemParam = 0;
   1084c:	fe042623          	sw	zero,-20(s0)
D:\CreateIC\01_CPIPC\riscv\RISCV_ENC_20220421\Firmware_true\app_prj\app_demo\Debug/../src/Bsp/Driver/hme_gpio.c:243
	uint8_t  ucPullEnFlag = pstGpioObj->stCfgParam.ucPullEn;
   10850:	fdc42783          	lw	a5,-36(s0)
   10854:	0057c783          	lbu	a5,5(a5)
   10858:	fef405a3          	sb	a5,-21(s0)
D:\CreateIC\01_CPIPC\riscv\RISCV_ENC_20220421\Firmware_true\app_prj\app_demo\Debug/../src/Bsp/Driver/hme_gpio.c:244
	uint8_t  ucPullType   = pstGpioObj->stCfgParam.ucPullType;
   1085c:	fdc42783          	lw	a5,-36(s0)
   10860:	0067c783          	lbu	a5,6(a5)
   10864:	fef40523          	sb	a5,-22(s0)
D:\CreateIC\01_CPIPC\riscv\RISCV_ENC_20220421\Firmware_true\app_prj\app_demo\Debug/../src/Bsp/Driver/hme_gpio.c:245
	uint32_t ulChannels   = pstGpioObj->stCfgParam.ulChannels;
   10868:	fdc42783          	lw	a5,-36(s0)
   1086c:	00c7a783          	lw	a5,12(a5)
   10870:	fef42223          	sw	a5,-28(s0)
D:\CreateIC\01_CPIPC\riscv\RISCV_ENC_20220421\Firmware_true\app_prj\app_demo\Debug/../src/Bsp/Driver/hme_gpio.c:247

	assert_param(IS_GPIO_ENABLE_TYPE(ucPullEnFlag));
   10874:	feb44783          	lbu	a5,-21(s0)
   10878:	02078063          	beqz	a5,10898 <GpioBitsPullCfg+0x94>
D:\CreateIC\01_CPIPC\riscv\RISCV_ENC_20220421\Firmware_true\app_prj\app_demo\Debug/../src/Bsp/Driver/hme_gpio.c:247 (discriminator 1)
   1087c:	feb44703          	lbu	a4,-21(s0)
   10880:	00100793          	li	a5,1
   10884:	00f70a63          	beq	a4,a5,10898 <GpioBitsPullCfg+0x94>
D:\CreateIC\01_CPIPC\riscv\RISCV_ENC_20220421\Firmware_true\app_prj\app_demo\Debug/../src/Bsp/Driver/hme_gpio.c:247 (discriminator 2)
   10888:	0f700593          	li	a1,247
   1088c:	000157b7          	lui	a5,0x15
   10890:	0c478513          	addi	a0,a5,196 # 150c4 <__init_array_end>
   10894:	345020ef          	jal	ra,133d8 <assert_failed>
D:\CreateIC\01_CPIPC\riscv\RISCV_ENC_20220421\Firmware_true\app_prj\app_demo\Debug/../src/Bsp/Driver/hme_gpio.c:248
	assert_param(IS_GPIO_PULL_TYPE(ucPullType));
   10898:	fea44783          	lbu	a5,-22(s0)
   1089c:	02078063          	beqz	a5,108bc <GpioBitsPullCfg+0xb8>
D:\CreateIC\01_CPIPC\riscv\RISCV_ENC_20220421\Firmware_true\app_prj\app_demo\Debug/../src/Bsp/Driver/hme_gpio.c:248 (discriminator 1)
   108a0:	fea44703          	lbu	a4,-22(s0)
   108a4:	00100793          	li	a5,1
   108a8:	00f70a63          	beq	a4,a5,108bc <GpioBitsPullCfg+0xb8>
D:\CreateIC\01_CPIPC\riscv\RISCV_ENC_20220421\Firmware_true\app_prj\app_demo\Debug/../src/Bsp/Driver/hme_gpio.c:248 (discriminator 2)
   108ac:	0f800593          	li	a1,248
   108b0:	000157b7          	lui	a5,0x15
   108b4:	0c478513          	addi	a0,a5,196 # 150c4 <__init_array_end>
   108b8:	321020ef          	jal	ra,133d8 <assert_failed>
D:\CreateIC\01_CPIPC\riscv\RISCV_ENC_20220421\Firmware_true\app_prj\app_demo\Debug/../src/Bsp/Driver/hme_gpio.c:250

	if (ucPullEnFlag == ENABLE)
   108bc:	feb44703          	lbu	a4,-21(s0)
   108c0:	00100793          	li	a5,1
   108c4:	0af71463          	bne	a4,a5,1096c <GpioBitsPullCfg+0x168>
D:\CreateIC\01_CPIPC\riscv\RISCV_ENC_20220421\Firmware_true\app_prj\app_demo\Debug/../src/Bsp/Driver/hme_gpio.c:252
	{
		ulTemParam = pstGpioObj->pstCtrller->PULLEN;
   108c8:	fdc42783          	lw	a5,-36(s0)
   108cc:	0147a783          	lw	a5,20(a5)
   108d0:	0407a783          	lw	a5,64(a5)
   108d4:	fef42623          	sw	a5,-20(s0)
D:\CreateIC\01_CPIPC\riscv\RISCV_ENC_20220421\Firmware_true\app_prj\app_demo\Debug/../src/Bsp/Driver/hme_gpio.c:253
		ulTemParam = ulTemParam | ulChannels;
   108d8:	fec42703          	lw	a4,-20(s0)
   108dc:	fe442783          	lw	a5,-28(s0)
   108e0:	00f767b3          	or	a5,a4,a5
   108e4:	fef42623          	sw	a5,-20(s0)
D:\CreateIC\01_CPIPC\riscv\RISCV_ENC_20220421\Firmware_true\app_prj\app_demo\Debug/../src/Bsp/Driver/hme_gpio.c:254
		pstGpioObj->pstCtrller->PULLEN = ulTemParam;
   108e8:	fdc42783          	lw	a5,-36(s0)
   108ec:	0147a783          	lw	a5,20(a5)
   108f0:	fec42703          	lw	a4,-20(s0)
   108f4:	04e7a023          	sw	a4,64(a5)
D:\CreateIC\01_CPIPC\riscv\RISCV_ENC_20220421\Firmware_true\app_prj\app_demo\Debug/../src/Bsp/Driver/hme_gpio.c:256

		if (ucPullType == EN_GPIO_PULL_TYPE_UP)
   108f8:	fea44783          	lbu	a5,-22(s0)
   108fc:	02079e63          	bnez	a5,10938 <GpioBitsPullCfg+0x134>
D:\CreateIC\01_CPIPC\riscv\RISCV_ENC_20220421\Firmware_true\app_prj\app_demo\Debug/../src/Bsp/Driver/hme_gpio.c:258
		{
			ulTemParam = pstGpioObj->pstCtrller->PULLTYPE;
   10900:	fdc42783          	lw	a5,-36(s0)
   10904:	0147a783          	lw	a5,20(a5)
   10908:	0447a783          	lw	a5,68(a5)
   1090c:	fef42623          	sw	a5,-20(s0)
D:\CreateIC\01_CPIPC\riscv\RISCV_ENC_20220421\Firmware_true\app_prj\app_demo\Debug/../src/Bsp/Driver/hme_gpio.c:259
			ulTemParam = ulTemParam & (~ulChannels);
   10910:	fe442783          	lw	a5,-28(s0)
   10914:	fff7c793          	not	a5,a5
   10918:	fec42703          	lw	a4,-20(s0)
   1091c:	00f777b3          	and	a5,a4,a5
   10920:	fef42623          	sw	a5,-20(s0)
D:\CreateIC\01_CPIPC\riscv\RISCV_ENC_20220421\Firmware_true\app_prj\app_demo\Debug/../src/Bsp/Driver/hme_gpio.c:260
			pstGpioObj->pstCtrller->PULLTYPE = ulTemParam;
   10924:	fdc42783          	lw	a5,-36(s0)
   10928:	0147a783          	lw	a5,20(a5)
   1092c:	fec42703          	lw	a4,-20(s0)
   10930:	04e7a223          	sw	a4,68(a5)
D:\CreateIC\01_CPIPC\riscv\RISCV_ENC_20220421\Firmware_true\app_prj\app_demo\Debug/../src/Bsp/Driver/hme_gpio.c:275
	{
		ulTemParam = pstGpioObj->pstCtrller->PULLEN;
		ulTemParam = ulTemParam & (~ulChannels);
		pstGpioObj->pstCtrller->PULLEN = ulTemParam;
	}
}
   10934:	06c0006f          	j	109a0 <GpioBitsPullCfg+0x19c>
D:\CreateIC\01_CPIPC\riscv\RISCV_ENC_20220421\Firmware_true\app_prj\app_demo\Debug/../src/Bsp/Driver/hme_gpio.c:264
			ulTemParam = pstGpioObj->pstCtrller->PULLTYPE;
   10938:	fdc42783          	lw	a5,-36(s0)
   1093c:	0147a783          	lw	a5,20(a5)
   10940:	0447a783          	lw	a5,68(a5)
   10944:	fef42623          	sw	a5,-20(s0)
D:\CreateIC\01_CPIPC\riscv\RISCV_ENC_20220421\Firmware_true\app_prj\app_demo\Debug/../src/Bsp/Driver/hme_gpio.c:265
			ulTemParam = ulTemParam | ulChannels;
   10948:	fec42703          	lw	a4,-20(s0)
   1094c:	fe442783          	lw	a5,-28(s0)
   10950:	00f767b3          	or	a5,a4,a5
   10954:	fef42623          	sw	a5,-20(s0)
D:\CreateIC\01_CPIPC\riscv\RISCV_ENC_20220421\Firmware_true\app_prj\app_demo\Debug/../src/Bsp/Driver/hme_gpio.c:266
			pstGpioObj->pstCtrller->PULLTYPE = ulTemParam;
   10958:	fdc42783          	lw	a5,-36(s0)
   1095c:	0147a783          	lw	a5,20(a5)
   10960:	fec42703          	lw	a4,-20(s0)
   10964:	04e7a223          	sw	a4,68(a5)
D:\CreateIC\01_CPIPC\riscv\RISCV_ENC_20220421\Firmware_true\app_prj\app_demo\Debug/../src/Bsp/Driver/hme_gpio.c:275
}
   10968:	0380006f          	j	109a0 <GpioBitsPullCfg+0x19c>
D:\CreateIC\01_CPIPC\riscv\RISCV_ENC_20220421\Firmware_true\app_prj\app_demo\Debug/../src/Bsp/Driver/hme_gpio.c:271
		ulTemParam = pstGpioObj->pstCtrller->PULLEN;
   1096c:	fdc42783          	lw	a5,-36(s0)
   10970:	0147a783          	lw	a5,20(a5)
   10974:	0407a783          	lw	a5,64(a5)
   10978:	fef42623          	sw	a5,-20(s0)
D:\CreateIC\01_CPIPC\riscv\RISCV_ENC_20220421\Firmware_true\app_prj\app_demo\Debug/../src/Bsp/Driver/hme_gpio.c:272
		ulTemParam = ulTemParam & (~ulChannels);
   1097c:	fe442783          	lw	a5,-28(s0)
   10980:	fff7c793          	not	a5,a5
   10984:	fec42703          	lw	a4,-20(s0)
   10988:	00f777b3          	and	a5,a4,a5
   1098c:	fef42623          	sw	a5,-20(s0)
D:\CreateIC\01_CPIPC\riscv\RISCV_ENC_20220421\Firmware_true\app_prj\app_demo\Debug/../src/Bsp/Driver/hme_gpio.c:273
		pstGpioObj->pstCtrller->PULLEN = ulTemParam;
   10990:	fdc42783          	lw	a5,-36(s0)
   10994:	0147a783          	lw	a5,20(a5)
   10998:	fec42703          	lw	a4,-20(s0)
   1099c:	04e7a023          	sw	a4,64(a5)
D:\CreateIC\01_CPIPC\riscv\RISCV_ENC_20220421\Firmware_true\app_prj\app_demo\Debug/../src/Bsp/Driver/hme_gpio.c:275
}
   109a0:	00000013          	nop
   109a4:	02c12083          	lw	ra,44(sp)
   109a8:	02812403          	lw	s0,40(sp)
   109ac:	03010113          	addi	sp,sp,48
   109b0:	00008067          	ret

000109b4 <GpioBitsDebounceCfg>:
GpioBitsDebounceCfg():
D:\CreateIC\01_CPIPC\riscv\RISCV_ENC_20220421\Firmware_true\app_prj\app_demo\Debug/../src/Bsp/Driver/hme_gpio.c:307
 * @brief  GPIO防抖属性配置
 * @param  pstGpioObj：GPIO设备对象
 * @retval 无
 *****************************************************************/
void GpioBitsDebounceCfg(PST_GPIO_ATTR pstGpioObj)
{
   109b4:	fd010113          	addi	sp,sp,-48
   109b8:	02112623          	sw	ra,44(sp)
   109bc:	02812423          	sw	s0,40(sp)
   109c0:	03010413          	addi	s0,sp,48
   109c4:	fca42e23          	sw	a0,-36(s0)
D:\CreateIC\01_CPIPC\riscv\RISCV_ENC_20220421\Firmware_true\app_prj\app_demo\Debug/../src/Bsp/Driver/hme_gpio.c:308
	assert_param(NULL != pstGpioObj);
   109c8:	fdc42783          	lw	a5,-36(s0)
   109cc:	00079a63          	bnez	a5,109e0 <GpioBitsDebounceCfg+0x2c>
D:\CreateIC\01_CPIPC\riscv\RISCV_ENC_20220421\Firmware_true\app_prj\app_demo\Debug/../src/Bsp/Driver/hme_gpio.c:308 (discriminator 1)
   109d0:	13400593          	li	a1,308
   109d4:	000157b7          	lui	a5,0x15
   109d8:	0c478513          	addi	a0,a5,196 # 150c4 <__init_array_end>
   109dc:	1fd020ef          	jal	ra,133d8 <assert_failed>
D:\CreateIC\01_CPIPC\riscv\RISCV_ENC_20220421\Firmware_true\app_prj\app_demo\Debug/../src/Bsp/Driver/hme_gpio.c:309
	assert_param(NULL != pstGpioObj->pstCtrller);
   109e0:	fdc42783          	lw	a5,-36(s0)
   109e4:	0147a783          	lw	a5,20(a5)
   109e8:	00079a63          	bnez	a5,109fc <GpioBitsDebounceCfg+0x48>
D:\CreateIC\01_CPIPC\riscv\RISCV_ENC_20220421\Firmware_true\app_prj\app_demo\Debug/../src/Bsp/Driver/hme_gpio.c:309 (discriminator 1)
   109ec:	13500593          	li	a1,309
   109f0:	000157b7          	lui	a5,0x15
   109f4:	0c478513          	addi	a0,a5,196 # 150c4 <__init_array_end>
   109f8:	1e1020ef          	jal	ra,133d8 <assert_failed>
D:\CreateIC\01_CPIPC\riscv\RISCV_ENC_20220421\Firmware_true\app_prj\app_demo\Debug/../src/Bsp/Driver/hme_gpio.c:311

	uint32_t ulTemParam = 0;
   109fc:	fe042623          	sw	zero,-20(s0)
D:\CreateIC\01_CPIPC\riscv\RISCV_ENC_20220421\Firmware_true\app_prj\app_demo\Debug/../src/Bsp/Driver/hme_gpio.c:312
	uint8_t  ucDbBounceEn = pstGpioObj->stCfgParam.ucDbBounceEn;
   10a00:	fdc42783          	lw	a5,-36(s0)
   10a04:	0077c783          	lbu	a5,7(a5)
   10a08:	fef405a3          	sb	a5,-21(s0)
D:\CreateIC\01_CPIPC\riscv\RISCV_ENC_20220421\Firmware_true\app_prj\app_demo\Debug/../src/Bsp/Driver/hme_gpio.c:313
	uint8_t  ucDbClkSel   = pstGpioObj->stCfgParam.ucDBClkSel;
   10a0c:	fdc42783          	lw	a5,-36(s0)
   10a10:	0087c783          	lbu	a5,8(a5)
   10a14:	fef40523          	sb	a5,-22(s0)
D:\CreateIC\01_CPIPC\riscv\RISCV_ENC_20220421\Firmware_true\app_prj\app_demo\Debug/../src/Bsp/Driver/hme_gpio.c:314
	uint8_t  ucDBPreScale = pstGpioObj->stCfgParam.DBPreScale;
   10a18:	fdc42783          	lw	a5,-36(s0)
   10a1c:	0097c783          	lbu	a5,9(a5)
   10a20:	fef404a3          	sb	a5,-23(s0)
D:\CreateIC\01_CPIPC\riscv\RISCV_ENC_20220421\Firmware_true\app_prj\app_demo\Debug/../src/Bsp/Driver/hme_gpio.c:315
	uint32_t ulChannels   = pstGpioObj->stCfgParam.ulChannels;
   10a24:	fdc42783          	lw	a5,-36(s0)
   10a28:	00c7a783          	lw	a5,12(a5)
   10a2c:	fef42223          	sw	a5,-28(s0)
D:\CreateIC\01_CPIPC\riscv\RISCV_ENC_20220421\Firmware_true\app_prj\app_demo\Debug/../src/Bsp/Driver/hme_gpio.c:317

	assert_param(IS_GPIO_DIR_TYPE(ucDbBounceEn));
   10a30:	feb44783          	lbu	a5,-21(s0)
   10a34:	02078063          	beqz	a5,10a54 <GpioBitsDebounceCfg+0xa0>
D:\CreateIC\01_CPIPC\riscv\RISCV_ENC_20220421\Firmware_true\app_prj\app_demo\Debug/../src/Bsp/Driver/hme_gpio.c:317 (discriminator 1)
   10a38:	feb44703          	lbu	a4,-21(s0)
   10a3c:	00100793          	li	a5,1
   10a40:	00f70a63          	beq	a4,a5,10a54 <GpioBitsDebounceCfg+0xa0>
D:\CreateIC\01_CPIPC\riscv\RISCV_ENC_20220421\Firmware_true\app_prj\app_demo\Debug/../src/Bsp/Driver/hme_gpio.c:317 (discriminator 2)
   10a44:	13d00593          	li	a1,317
   10a48:	000157b7          	lui	a5,0x15
   10a4c:	0c478513          	addi	a0,a5,196 # 150c4 <__init_array_end>
   10a50:	189020ef          	jal	ra,133d8 <assert_failed>
D:\CreateIC\01_CPIPC\riscv\RISCV_ENC_20220421\Firmware_true\app_prj\app_demo\Debug/../src/Bsp/Driver/hme_gpio.c:318
    assert_param(IS_GPIO_DBCLK_TYPE(ucDbClkSel));
   10a54:	fea44783          	lbu	a5,-22(s0)
   10a58:	02078063          	beqz	a5,10a78 <GpioBitsDebounceCfg+0xc4>
D:\CreateIC\01_CPIPC\riscv\RISCV_ENC_20220421\Firmware_true\app_prj\app_demo\Debug/../src/Bsp/Driver/hme_gpio.c:318 (discriminator 1)
   10a5c:	fea44703          	lbu	a4,-22(s0)
   10a60:	00100793          	li	a5,1
   10a64:	00f70a63          	beq	a4,a5,10a78 <GpioBitsDebounceCfg+0xc4>
D:\CreateIC\01_CPIPC\riscv\RISCV_ENC_20220421\Firmware_true\app_prj\app_demo\Debug/../src/Bsp/Driver/hme_gpio.c:318 (discriminator 2)
   10a68:	13e00593          	li	a1,318
   10a6c:	000157b7          	lui	a5,0x15
   10a70:	0c478513          	addi	a0,a5,196 # 150c4 <__init_array_end>
   10a74:	165020ef          	jal	ra,133d8 <assert_failed>
D:\CreateIC\01_CPIPC\riscv\RISCV_ENC_20220421\Firmware_true\app_prj\app_demo\Debug/../src/Bsp/Driver/hme_gpio.c:321

    //使能Gpio抖动使能和参数配置
	if (ucDbBounceEn == ENABLE)
   10a78:	feb44703          	lbu	a4,-21(s0)
   10a7c:	00100793          	li	a5,1
   10a80:	0af71c63          	bne	a4,a5,10b38 <GpioBitsDebounceCfg+0x184>
D:\CreateIC\01_CPIPC\riscv\RISCV_ENC_20220421\Firmware_true\app_prj\app_demo\Debug/../src/Bsp/Driver/hme_gpio.c:323
	{
		ulTemParam = pstGpioObj->pstCtrller->DEBOUNCECTRL;
   10a84:	fdc42783          	lw	a5,-36(s0)
   10a88:	0147a783          	lw	a5,20(a5)
   10a8c:	0747a783          	lw	a5,116(a5)
   10a90:	fef42623          	sw	a5,-20(s0)
D:\CreateIC\01_CPIPC\riscv\RISCV_ENC_20220421\Firmware_true\app_prj\app_demo\Debug/../src/Bsp/Driver/hme_gpio.c:324
		if (ucDbClkSel == EN_GPIO_DBCLK_TYPE_EXT)
   10a94:	fea44783          	lbu	a5,-22(s0)
   10a98:	02079e63          	bnez	a5,10ad4 <GpioBitsDebounceCfg+0x120>
D:\CreateIC\01_CPIPC\riscv\RISCV_ENC_20220421\Firmware_true\app_prj\app_demo\Debug/../src/Bsp/Driver/hme_gpio.c:326
		{
			ulTemParam = ulTemParam & (~(1 << 31));
   10a9c:	fec42703          	lw	a4,-20(s0)
   10aa0:	800007b7          	lui	a5,0x80000
   10aa4:	fff7c793          	not	a5,a5
   10aa8:	00f777b3          	and	a5,a4,a5
   10aac:	fef42623          	sw	a5,-20(s0)
D:\CreateIC\01_CPIPC\riscv\RISCV_ENC_20220421\Firmware_true\app_prj\app_demo\Debug/../src/Bsp/Driver/hme_gpio.c:327
			ulTemParam = ulTemParam | ucDBPreScale;
   10ab0:	fe944783          	lbu	a5,-23(s0)
   10ab4:	fec42703          	lw	a4,-20(s0)
   10ab8:	00f767b3          	or	a5,a4,a5
   10abc:	fef42623          	sw	a5,-20(s0)
D:\CreateIC\01_CPIPC\riscv\RISCV_ENC_20220421\Firmware_true\app_prj\app_demo\Debug/../src/Bsp/Driver/hme_gpio.c:328
			pstGpioObj->pstCtrller->DEBOUNCECTRL = ulTemParam;
   10ac0:	fdc42783          	lw	a5,-36(s0)
   10ac4:	0147a783          	lw	a5,20(a5) # 80000014 <__freertos_irq_stack_top+0x7ffc1994>
   10ac8:	fec42703          	lw	a4,-20(s0)
   10acc:	06e7aa23          	sw	a4,116(a5)
   10ad0:	0340006f          	j	10b04 <GpioBitsDebounceCfg+0x150>
D:\CreateIC\01_CPIPC\riscv\RISCV_ENC_20220421\Firmware_true\app_prj\app_demo\Debug/../src/Bsp/Driver/hme_gpio.c:332
		}
		else
		{
			ulTemParam = ulTemParam | (1 << 31);
   10ad4:	fec42703          	lw	a4,-20(s0)
   10ad8:	800007b7          	lui	a5,0x80000
   10adc:	00f767b3          	or	a5,a4,a5
   10ae0:	fef42623          	sw	a5,-20(s0)
D:\CreateIC\01_CPIPC\riscv\RISCV_ENC_20220421\Firmware_true\app_prj\app_demo\Debug/../src/Bsp/Driver/hme_gpio.c:333
			ulTemParam = ulTemParam | ucDBPreScale;
   10ae4:	fe944783          	lbu	a5,-23(s0)
   10ae8:	fec42703          	lw	a4,-20(s0)
   10aec:	00f767b3          	or	a5,a4,a5
   10af0:	fef42623          	sw	a5,-20(s0)
D:\CreateIC\01_CPIPC\riscv\RISCV_ENC_20220421\Firmware_true\app_prj\app_demo\Debug/../src/Bsp/Driver/hme_gpio.c:334
			pstGpioObj->pstCtrller->DEBOUNCECTRL = ulTemParam;
   10af4:	fdc42783          	lw	a5,-36(s0)
   10af8:	0147a783          	lw	a5,20(a5) # 80000014 <__freertos_irq_stack_top+0x7ffc1994>
   10afc:	fec42703          	lw	a4,-20(s0)
   10b00:	06e7aa23          	sw	a4,116(a5)
D:\CreateIC\01_CPIPC\riscv\RISCV_ENC_20220421\Firmware_true\app_prj\app_demo\Debug/../src/Bsp/Driver/hme_gpio.c:338
		}


		ulTemParam = pstGpioObj->pstCtrller->DEBOUNCEEN;
   10b04:	fdc42783          	lw	a5,-36(s0)
   10b08:	0147a783          	lw	a5,20(a5)
   10b0c:	0707a783          	lw	a5,112(a5)
   10b10:	fef42623          	sw	a5,-20(s0)
D:\CreateIC\01_CPIPC\riscv\RISCV_ENC_20220421\Firmware_true\app_prj\app_demo\Debug/../src/Bsp/Driver/hme_gpio.c:339
		ulTemParam = ulTemParam | ulChannels;
   10b14:	fec42703          	lw	a4,-20(s0)
   10b18:	fe442783          	lw	a5,-28(s0)
   10b1c:	00f767b3          	or	a5,a4,a5
   10b20:	fef42623          	sw	a5,-20(s0)
D:\CreateIC\01_CPIPC\riscv\RISCV_ENC_20220421\Firmware_true\app_prj\app_demo\Debug/../src/Bsp/Driver/hme_gpio.c:340
		pstGpioObj->pstCtrller->DEBOUNCEEN = ulTemParam;
   10b24:	fdc42783          	lw	a5,-36(s0)
   10b28:	0147a783          	lw	a5,20(a5)
   10b2c:	fec42703          	lw	a4,-20(s0)
   10b30:	06e7a823          	sw	a4,112(a5)
D:\CreateIC\01_CPIPC\riscv\RISCV_ENC_20220421\Firmware_true\app_prj\app_demo\Debug/../src/Bsp/Driver/hme_gpio.c:349
		//禁止GPIO抖动设置
		ulTemParam = pstGpioObj->pstCtrller->DEBOUNCEEN;
		ulTemParam = ulTemParam & (~ulChannels);
		pstGpioObj->pstCtrller->DEBOUNCEEN = ulTemParam;
	}
}
   10b34:	0380006f          	j	10b6c <GpioBitsDebounceCfg+0x1b8>
D:\CreateIC\01_CPIPC\riscv\RISCV_ENC_20220421\Firmware_true\app_prj\app_demo\Debug/../src/Bsp/Driver/hme_gpio.c:345
		ulTemParam = pstGpioObj->pstCtrller->DEBOUNCEEN;
   10b38:	fdc42783          	lw	a5,-36(s0)
   10b3c:	0147a783          	lw	a5,20(a5)
   10b40:	0707a783          	lw	a5,112(a5)
   10b44:	fef42623          	sw	a5,-20(s0)
D:\CreateIC\01_CPIPC\riscv\RISCV_ENC_20220421\Firmware_true\app_prj\app_demo\Debug/../src/Bsp/Driver/hme_gpio.c:346
		ulTemParam = ulTemParam & (~ulChannels);
   10b48:	fe442783          	lw	a5,-28(s0)
   10b4c:	fff7c793          	not	a5,a5
   10b50:	fec42703          	lw	a4,-20(s0)
   10b54:	00f777b3          	and	a5,a4,a5
   10b58:	fef42623          	sw	a5,-20(s0)
D:\CreateIC\01_CPIPC\riscv\RISCV_ENC_20220421\Firmware_true\app_prj\app_demo\Debug/../src/Bsp/Driver/hme_gpio.c:347
		pstGpioObj->pstCtrller->DEBOUNCEEN = ulTemParam;
   10b5c:	fdc42783          	lw	a5,-36(s0)
   10b60:	0147a783          	lw	a5,20(a5)
   10b64:	fec42703          	lw	a4,-20(s0)
   10b68:	06e7a823          	sw	a4,112(a5)
D:\CreateIC\01_CPIPC\riscv\RISCV_ENC_20220421\Firmware_true\app_prj\app_demo\Debug/../src/Bsp/Driver/hme_gpio.c:349
}
   10b6c:	00000013          	nop
   10b70:	02c12083          	lw	ra,44(sp)
   10b74:	02812403          	lw	s0,40(sp)
   10b78:	03010113          	addi	sp,sp,48
   10b7c:	00008067          	ret

00010b80 <GpioBitsIntrCfg>:
GpioBitsIntrCfg():
D:\CreateIC\01_CPIPC\riscv\RISCV_ENC_20220421\Firmware_true\app_prj\app_demo\Debug/../src/Bsp/Driver/hme_gpio.c:382
 * @brief  GPIO中断使能配置
 * @param  pstGpioObj：GPIO设备对象
 * @retval 无
 *****************************************************************/
void GpioBitsIntrCfg(PST_GPIO_ATTR pstGpioObj)
{
   10b80:	fd010113          	addi	sp,sp,-48
   10b84:	02112623          	sw	ra,44(sp)
   10b88:	02812423          	sw	s0,40(sp)
   10b8c:	03010413          	addi	s0,sp,48
   10b90:	fca42e23          	sw	a0,-36(s0)
D:\CreateIC\01_CPIPC\riscv\RISCV_ENC_20220421\Firmware_true\app_prj\app_demo\Debug/../src/Bsp/Driver/hme_gpio.c:383
	assert_param(NULL != pstGpioObj);
   10b94:	fdc42783          	lw	a5,-36(s0)
   10b98:	00079a63          	bnez	a5,10bac <GpioBitsIntrCfg+0x2c>
D:\CreateIC\01_CPIPC\riscv\RISCV_ENC_20220421\Firmware_true\app_prj\app_demo\Debug/../src/Bsp/Driver/hme_gpio.c:383 (discriminator 1)
   10b9c:	17f00593          	li	a1,383
   10ba0:	000157b7          	lui	a5,0x15
   10ba4:	0c478513          	addi	a0,a5,196 # 150c4 <__init_array_end>
   10ba8:	031020ef          	jal	ra,133d8 <assert_failed>
D:\CreateIC\01_CPIPC\riscv\RISCV_ENC_20220421\Firmware_true\app_prj\app_demo\Debug/../src/Bsp/Driver/hme_gpio.c:384
	assert_param(NULL != pstGpioObj->pstCtrller);
   10bac:	fdc42783          	lw	a5,-36(s0)
   10bb0:	0147a783          	lw	a5,20(a5)
   10bb4:	00079a63          	bnez	a5,10bc8 <GpioBitsIntrCfg+0x48>
D:\CreateIC\01_CPIPC\riscv\RISCV_ENC_20220421\Firmware_true\app_prj\app_demo\Debug/../src/Bsp/Driver/hme_gpio.c:384 (discriminator 1)
   10bb8:	18000593          	li	a1,384
   10bbc:	000157b7          	lui	a5,0x15
   10bc0:	0c478513          	addi	a0,a5,196 # 150c4 <__init_array_end>
   10bc4:	015020ef          	jal	ra,133d8 <assert_failed>
D:\CreateIC\01_CPIPC\riscv\RISCV_ENC_20220421\Firmware_true\app_prj\app_demo\Debug/../src/Bsp/Driver/hme_gpio.c:386

	uint32_t ulCount = 0;
   10bc8:	fe042623          	sw	zero,-20(s0)
D:\CreateIC\01_CPIPC\riscv\RISCV_ENC_20220421\Firmware_true\app_prj\app_demo\Debug/../src/Bsp/Driver/hme_gpio.c:387
	uint32_t ulTemParam = 0;
   10bcc:	fe042423          	sw	zero,-24(s0)
D:\CreateIC\01_CPIPC\riscv\RISCV_ENC_20220421\Firmware_true\app_prj\app_demo\Debug/../src/Bsp/Driver/hme_gpio.c:388
	uint8_t  ucIntrEnFlag = pstGpioObj->stCfgParam.ucIntrEn;
   10bd0:	fdc42783          	lw	a5,-36(s0)
   10bd4:	0037c783          	lbu	a5,3(a5)
   10bd8:	fef403a3          	sb	a5,-25(s0)
D:\CreateIC\01_CPIPC\riscv\RISCV_ENC_20220421\Firmware_true\app_prj\app_demo\Debug/../src/Bsp/Driver/hme_gpio.c:389
	uint8_t  ucIntrMode   = pstGpioObj->stCfgParam.ucIntrMode;
   10bdc:	fdc42783          	lw	a5,-36(s0)
   10be0:	0047c783          	lbu	a5,4(a5)
   10be4:	fef40323          	sb	a5,-26(s0)
D:\CreateIC\01_CPIPC\riscv\RISCV_ENC_20220421\Firmware_true\app_prj\app_demo\Debug/../src/Bsp/Driver/hme_gpio.c:390
	uint32_t ulChannels   = pstGpioObj->stCfgParam.ulChannels;
   10be8:	fdc42783          	lw	a5,-36(s0)
   10bec:	00c7a783          	lw	a5,12(a5)
   10bf0:	fef42023          	sw	a5,-32(s0)
D:\CreateIC\01_CPIPC\riscv\RISCV_ENC_20220421\Firmware_true\app_prj\app_demo\Debug/../src/Bsp/Driver/hme_gpio.c:392

	assert_param(IS_GPIO_ENABLE_TYPE(ucIntrEnFlag));
   10bf4:	fe744783          	lbu	a5,-25(s0)
   10bf8:	02078063          	beqz	a5,10c18 <GpioBitsIntrCfg+0x98>
D:\CreateIC\01_CPIPC\riscv\RISCV_ENC_20220421\Firmware_true\app_prj\app_demo\Debug/../src/Bsp/Driver/hme_gpio.c:392 (discriminator 1)
   10bfc:	fe744703          	lbu	a4,-25(s0)
   10c00:	00100793          	li	a5,1
   10c04:	00f70a63          	beq	a4,a5,10c18 <GpioBitsIntrCfg+0x98>
D:\CreateIC\01_CPIPC\riscv\RISCV_ENC_20220421\Firmware_true\app_prj\app_demo\Debug/../src/Bsp/Driver/hme_gpio.c:392 (discriminator 2)
   10c08:	18800593          	li	a1,392
   10c0c:	000157b7          	lui	a5,0x15
   10c10:	0c478513          	addi	a0,a5,196 # 150c4 <__init_array_end>
   10c14:	7c4020ef          	jal	ra,133d8 <assert_failed>
D:\CreateIC\01_CPIPC\riscv\RISCV_ENC_20220421\Firmware_true\app_prj\app_demo\Debug/../src/Bsp/Driver/hme_gpio.c:393
	assert_param(IS_GPIO_INTR_MODE(ucIntrMode));
   10c18:	fe644783          	lbu	a5,-26(s0)
   10c1c:	04078863          	beqz	a5,10c6c <GpioBitsIntrCfg+0xec>
D:\CreateIC\01_CPIPC\riscv\RISCV_ENC_20220421\Firmware_true\app_prj\app_demo\Debug/../src/Bsp/Driver/hme_gpio.c:393 (discriminator 1)
   10c20:	fe644703          	lbu	a4,-26(s0)
   10c24:	00200793          	li	a5,2
   10c28:	04f70263          	beq	a4,a5,10c6c <GpioBitsIntrCfg+0xec>
D:\CreateIC\01_CPIPC\riscv\RISCV_ENC_20220421\Firmware_true\app_prj\app_demo\Debug/../src/Bsp/Driver/hme_gpio.c:393 (discriminator 2)
   10c2c:	fe644703          	lbu	a4,-26(s0)
   10c30:	00300793          	li	a5,3
   10c34:	02f70c63          	beq	a4,a5,10c6c <GpioBitsIntrCfg+0xec>
D:\CreateIC\01_CPIPC\riscv\RISCV_ENC_20220421\Firmware_true\app_prj\app_demo\Debug/../src/Bsp/Driver/hme_gpio.c:393 (discriminator 3)
   10c38:	fe644703          	lbu	a4,-26(s0)
   10c3c:	00500793          	li	a5,5
   10c40:	02f70663          	beq	a4,a5,10c6c <GpioBitsIntrCfg+0xec>
D:\CreateIC\01_CPIPC\riscv\RISCV_ENC_20220421\Firmware_true\app_prj\app_demo\Debug/../src/Bsp/Driver/hme_gpio.c:393 (discriminator 4)
   10c44:	fe644703          	lbu	a4,-26(s0)
   10c48:	00600793          	li	a5,6
   10c4c:	02f70063          	beq	a4,a5,10c6c <GpioBitsIntrCfg+0xec>
D:\CreateIC\01_CPIPC\riscv\RISCV_ENC_20220421\Firmware_true\app_prj\app_demo\Debug/../src/Bsp/Driver/hme_gpio.c:393 (discriminator 5)
   10c50:	fe644703          	lbu	a4,-26(s0)
   10c54:	00700793          	li	a5,7
   10c58:	00f70a63          	beq	a4,a5,10c6c <GpioBitsIntrCfg+0xec>
D:\CreateIC\01_CPIPC\riscv\RISCV_ENC_20220421\Firmware_true\app_prj\app_demo\Debug/../src/Bsp/Driver/hme_gpio.c:393 (discriminator 6)
   10c5c:	18900593          	li	a1,393
   10c60:	000157b7          	lui	a5,0x15
   10c64:	0c478513          	addi	a0,a5,196 # 150c4 <__init_array_end>
   10c68:	770020ef          	jal	ra,133d8 <assert_failed>
D:\CreateIC\01_CPIPC\riscv\RISCV_ENC_20220421\Firmware_true\app_prj\app_demo\Debug/../src/Bsp/Driver/hme_gpio.c:395

	if (ucIntrEnFlag == ENABLE)
   10c6c:	fe744703          	lbu	a4,-25(s0)
   10c70:	00100793          	li	a5,1
   10c74:	1cf71463          	bne	a4,a5,10e3c <GpioBitsIntrCfg+0x2bc>
D:\CreateIC\01_CPIPC\riscv\RISCV_ENC_20220421\Firmware_true\app_prj\app_demo\Debug/../src/Bsp/Driver/hme_gpio.c:398
	{
        //GPIO设备中断使能配置
		ulTemParam = pstGpioObj->pstCtrller->INTREN;
   10c78:	fdc42783          	lw	a5,-36(s0)
   10c7c:	0147a783          	lw	a5,20(a5)
   10c80:	0507a783          	lw	a5,80(a5)
   10c84:	fef42423          	sw	a5,-24(s0)
D:\CreateIC\01_CPIPC\riscv\RISCV_ENC_20220421\Firmware_true\app_prj\app_demo\Debug/../src/Bsp/Driver/hme_gpio.c:399
		ulTemParam = ulTemParam | ulChannels;
   10c88:	fe842703          	lw	a4,-24(s0)
   10c8c:	fe042783          	lw	a5,-32(s0)
   10c90:	00f767b3          	or	a5,a4,a5
   10c94:	fef42423          	sw	a5,-24(s0)
D:\CreateIC\01_CPIPC\riscv\RISCV_ENC_20220421\Firmware_true\app_prj\app_demo\Debug/../src/Bsp/Driver/hme_gpio.c:400
		pstGpioObj->pstCtrller->INTREN = ulTemParam;
   10c98:	fdc42783          	lw	a5,-36(s0)
   10c9c:	0147a783          	lw	a5,20(a5)
   10ca0:	fe842703          	lw	a4,-24(s0)
   10ca4:	04e7a823          	sw	a4,80(a5)
D:\CreateIC\01_CPIPC\riscv\RISCV_ENC_20220421\Firmware_true\app_prj\app_demo\Debug/../src/Bsp/Driver/hme_gpio.c:401
		for (ulCount = 0; ulCount < 32; ulCount++)
   10ca8:	fe042623          	sw	zero,-20(s0)
   10cac:	1800006f          	j	10e2c <GpioBitsIntrCfg+0x2ac>
D:\CreateIC\01_CPIPC\riscv\RISCV_ENC_20220421\Firmware_true\app_prj\app_demo\Debug/../src/Bsp/Driver/hme_gpio.c:403
		{
			if (ulChannels & (1 << ulCount))
   10cb0:	fec42783          	lw	a5,-20(s0)
   10cb4:	00100713          	li	a4,1
   10cb8:	00f717b3          	sll	a5,a4,a5
   10cbc:	00078713          	mv	a4,a5
   10cc0:	fe042783          	lw	a5,-32(s0)
   10cc4:	00f777b3          	and	a5,a4,a5
   10cc8:	14078c63          	beqz	a5,10e20 <GpioBitsIntrCfg+0x2a0>
D:\CreateIC\01_CPIPC\riscv\RISCV_ENC_20220421\Firmware_true\app_prj\app_demo\Debug/../src/Bsp/Driver/hme_gpio.c:405
			{
				if (ulCount < 8)
   10ccc:	fec42703          	lw	a4,-20(s0)
   10cd0:	00700793          	li	a5,7
   10cd4:	04e7e463          	bltu	a5,a4,10d1c <GpioBitsIntrCfg+0x19c>
D:\CreateIC\01_CPIPC\riscv\RISCV_ENC_20220421\Firmware_true\app_prj\app_demo\Debug/../src/Bsp/Driver/hme_gpio.c:407
				{
					ulTemParam = pstGpioObj->pstCtrller->INTRMODE0;
   10cd8:	fdc42783          	lw	a5,-36(s0)
   10cdc:	0147a783          	lw	a5,20(a5)
   10ce0:	0547a783          	lw	a5,84(a5)
   10ce4:	fef42423          	sw	a5,-24(s0)
D:\CreateIC\01_CPIPC\riscv\RISCV_ENC_20220421\Firmware_true\app_prj\app_demo\Debug/../src/Bsp/Driver/hme_gpio.c:408
					ulTemParam = ulTemParam | (ucIntrMode << (ulCount * 4));
   10ce8:	fe644703          	lbu	a4,-26(s0)
   10cec:	fec42783          	lw	a5,-20(s0)
   10cf0:	00279793          	slli	a5,a5,0x2
   10cf4:	00f717b3          	sll	a5,a4,a5
   10cf8:	00078713          	mv	a4,a5
   10cfc:	fe842783          	lw	a5,-24(s0)
   10d00:	00e7e7b3          	or	a5,a5,a4
   10d04:	fef42423          	sw	a5,-24(s0)
D:\CreateIC\01_CPIPC\riscv\RISCV_ENC_20220421\Firmware_true\app_prj\app_demo\Debug/../src/Bsp/Driver/hme_gpio.c:409
					pstGpioObj->pstCtrller->INTRMODE0 = ulTemParam;
   10d08:	fdc42783          	lw	a5,-36(s0)
   10d0c:	0147a783          	lw	a5,20(a5)
   10d10:	fe842703          	lw	a4,-24(s0)
   10d14:	04e7aa23          	sw	a4,84(a5)
   10d18:	1080006f          	j	10e20 <GpioBitsIntrCfg+0x2a0>
D:\CreateIC\01_CPIPC\riscv\RISCV_ENC_20220421\Firmware_true\app_prj\app_demo\Debug/../src/Bsp/Driver/hme_gpio.c:411
				}
				else if (ulCount < 16)
   10d1c:	fec42703          	lw	a4,-20(s0)
   10d20:	00f00793          	li	a5,15
   10d24:	04e7ea63          	bltu	a5,a4,10d78 <GpioBitsIntrCfg+0x1f8>
D:\CreateIC\01_CPIPC\riscv\RISCV_ENC_20220421\Firmware_true\app_prj\app_demo\Debug/../src/Bsp/Driver/hme_gpio.c:413
				{
					ulTemParam = pstGpioObj->pstCtrller->INTRMODE1;
   10d28:	fdc42783          	lw	a5,-36(s0)
   10d2c:	0147a783          	lw	a5,20(a5)
   10d30:	0587a783          	lw	a5,88(a5)
   10d34:	fef42423          	sw	a5,-24(s0)
D:\CreateIC\01_CPIPC\riscv\RISCV_ENC_20220421\Firmware_true\app_prj\app_demo\Debug/../src/Bsp/Driver/hme_gpio.c:414
					ulTemParam = ulTemParam | (ucIntrMode << ((ulCount - 8) * 4));
   10d38:	fe644703          	lbu	a4,-26(s0)
   10d3c:	fec42683          	lw	a3,-20(s0)
   10d40:	400007b7          	lui	a5,0x40000
   10d44:	ff878793          	addi	a5,a5,-8 # 3ffffff8 <__freertos_irq_stack_top+0x3ffc1978>
   10d48:	00f687b3          	add	a5,a3,a5
   10d4c:	00279793          	slli	a5,a5,0x2
   10d50:	00f717b3          	sll	a5,a4,a5
   10d54:	00078713          	mv	a4,a5
   10d58:	fe842783          	lw	a5,-24(s0)
   10d5c:	00e7e7b3          	or	a5,a5,a4
   10d60:	fef42423          	sw	a5,-24(s0)
D:\CreateIC\01_CPIPC\riscv\RISCV_ENC_20220421\Firmware_true\app_prj\app_demo\Debug/../src/Bsp/Driver/hme_gpio.c:415
					pstGpioObj->pstCtrller->INTRMODE0 = ulTemParam;
   10d64:	fdc42783          	lw	a5,-36(s0)
   10d68:	0147a783          	lw	a5,20(a5)
   10d6c:	fe842703          	lw	a4,-24(s0)
   10d70:	04e7aa23          	sw	a4,84(a5)
   10d74:	0ac0006f          	j	10e20 <GpioBitsIntrCfg+0x2a0>
D:\CreateIC\01_CPIPC\riscv\RISCV_ENC_20220421\Firmware_true\app_prj\app_demo\Debug/../src/Bsp/Driver/hme_gpio.c:417
				}
				else if (ulCount < 24)
   10d78:	fec42703          	lw	a4,-20(s0)
   10d7c:	01700793          	li	a5,23
   10d80:	04e7ea63          	bltu	a5,a4,10dd4 <GpioBitsIntrCfg+0x254>
D:\CreateIC\01_CPIPC\riscv\RISCV_ENC_20220421\Firmware_true\app_prj\app_demo\Debug/../src/Bsp/Driver/hme_gpio.c:419
				{
					ulTemParam = pstGpioObj->pstCtrller->INTRMODE2;
   10d84:	fdc42783          	lw	a5,-36(s0)
   10d88:	0147a783          	lw	a5,20(a5)
   10d8c:	05c7a783          	lw	a5,92(a5)
   10d90:	fef42423          	sw	a5,-24(s0)
D:\CreateIC\01_CPIPC\riscv\RISCV_ENC_20220421\Firmware_true\app_prj\app_demo\Debug/../src/Bsp/Driver/hme_gpio.c:420
					ulTemParam = ulTemParam | (ucIntrMode << ((ulCount - 16) * 4));
   10d94:	fe644703          	lbu	a4,-26(s0)
   10d98:	fec42683          	lw	a3,-20(s0)
   10d9c:	400007b7          	lui	a5,0x40000
   10da0:	ff078793          	addi	a5,a5,-16 # 3ffffff0 <__freertos_irq_stack_top+0x3ffc1970>
   10da4:	00f687b3          	add	a5,a3,a5
   10da8:	00279793          	slli	a5,a5,0x2
   10dac:	00f717b3          	sll	a5,a4,a5
   10db0:	00078713          	mv	a4,a5
   10db4:	fe842783          	lw	a5,-24(s0)
   10db8:	00e7e7b3          	or	a5,a5,a4
   10dbc:	fef42423          	sw	a5,-24(s0)
D:\CreateIC\01_CPIPC\riscv\RISCV_ENC_20220421\Firmware_true\app_prj\app_demo\Debug/../src/Bsp/Driver/hme_gpio.c:421
					pstGpioObj->pstCtrller->INTRMODE0 = ulTemParam;
   10dc0:	fdc42783          	lw	a5,-36(s0)
   10dc4:	0147a783          	lw	a5,20(a5)
   10dc8:	fe842703          	lw	a4,-24(s0)
   10dcc:	04e7aa23          	sw	a4,84(a5)
   10dd0:	0500006f          	j	10e20 <GpioBitsIntrCfg+0x2a0>
D:\CreateIC\01_CPIPC\riscv\RISCV_ENC_20220421\Firmware_true\app_prj\app_demo\Debug/../src/Bsp/Driver/hme_gpio.c:425
				}
				else
				{
					ulTemParam = pstGpioObj->pstCtrller->INTRMODE3;
   10dd4:	fdc42783          	lw	a5,-36(s0)
   10dd8:	0147a783          	lw	a5,20(a5)
   10ddc:	0607a783          	lw	a5,96(a5)
   10de0:	fef42423          	sw	a5,-24(s0)
D:\CreateIC\01_CPIPC\riscv\RISCV_ENC_20220421\Firmware_true\app_prj\app_demo\Debug/../src/Bsp/Driver/hme_gpio.c:426
					ulTemParam = ulTemParam | (ucIntrMode << ((ulCount - 24) * 4));
   10de4:	fe644703          	lbu	a4,-26(s0)
   10de8:	fec42683          	lw	a3,-20(s0)
   10dec:	400007b7          	lui	a5,0x40000
   10df0:	fe878793          	addi	a5,a5,-24 # 3fffffe8 <__freertos_irq_stack_top+0x3ffc1968>
   10df4:	00f687b3          	add	a5,a3,a5
   10df8:	00279793          	slli	a5,a5,0x2
   10dfc:	00f717b3          	sll	a5,a4,a5
   10e00:	00078713          	mv	a4,a5
   10e04:	fe842783          	lw	a5,-24(s0)
   10e08:	00e7e7b3          	or	a5,a5,a4
   10e0c:	fef42423          	sw	a5,-24(s0)
D:\CreateIC\01_CPIPC\riscv\RISCV_ENC_20220421\Firmware_true\app_prj\app_demo\Debug/../src/Bsp/Driver/hme_gpio.c:427
					pstGpioObj->pstCtrller->INTRMODE0 = ulTemParam;
   10e10:	fdc42783          	lw	a5,-36(s0)
   10e14:	0147a783          	lw	a5,20(a5)
   10e18:	fe842703          	lw	a4,-24(s0)
   10e1c:	04e7aa23          	sw	a4,84(a5)
D:\CreateIC\01_CPIPC\riscv\RISCV_ENC_20220421\Firmware_true\app_prj\app_demo\Debug/../src/Bsp/Driver/hme_gpio.c:401 (discriminator 2)
		for (ulCount = 0; ulCount < 32; ulCount++)
   10e20:	fec42783          	lw	a5,-20(s0)
   10e24:	00178793          	addi	a5,a5,1
   10e28:	fef42623          	sw	a5,-20(s0)
D:\CreateIC\01_CPIPC\riscv\RISCV_ENC_20220421\Firmware_true\app_prj\app_demo\Debug/../src/Bsp/Driver/hme_gpio.c:401 (discriminator 1)
   10e2c:	fec42703          	lw	a4,-20(s0)
   10e30:	01f00793          	li	a5,31
   10e34:	e6e7fee3          	bgeu	a5,a4,10cb0 <GpioBitsIntrCfg+0x130>
D:\CreateIC\01_CPIPC\riscv\RISCV_ENC_20220421\Firmware_true\app_prj\app_demo\Debug/../src/Bsp/Driver/hme_gpio.c:437
	else
	{
		/***中断对应位禁止使能***/
		GpioBitsIntrDisable(pstGpioObj);
	}
}
   10e38:	00c0006f          	j	10e44 <GpioBitsIntrCfg+0x2c4>
D:\CreateIC\01_CPIPC\riscv\RISCV_ENC_20220421\Firmware_true\app_prj\app_demo\Debug/../src/Bsp/Driver/hme_gpio.c:435
		GpioBitsIntrDisable(pstGpioObj);
   10e3c:	fdc42503          	lw	a0,-36(s0)
   10e40:	018000ef          	jal	ra,10e58 <GpioBitsIntrDisable>
D:\CreateIC\01_CPIPC\riscv\RISCV_ENC_20220421\Firmware_true\app_prj\app_demo\Debug/../src/Bsp/Driver/hme_gpio.c:437
}
   10e44:	00000013          	nop
   10e48:	02c12083          	lw	ra,44(sp)
   10e4c:	02812403          	lw	s0,40(sp)
   10e50:	03010113          	addi	sp,sp,48
   10e54:	00008067          	ret

00010e58 <GpioBitsIntrDisable>:
GpioBitsIntrDisable():
D:\CreateIC\01_CPIPC\riscv\RISCV_ENC_20220421\Firmware_true\app_prj\app_demo\Debug/../src/Bsp/Driver/hme_gpio.c:500
 * @brief  GPIO中断禁止
 * @param  pstGpioObj：GPIO设备对象
 * @retval 无
 *****************************************************************/
void GpioBitsIntrDisable(PST_GPIO_ATTR pstGpioObj)
{
   10e58:	fd010113          	addi	sp,sp,-48
   10e5c:	02112623          	sw	ra,44(sp)
   10e60:	02812423          	sw	s0,40(sp)
   10e64:	03010413          	addi	s0,sp,48
   10e68:	fca42e23          	sw	a0,-36(s0)
D:\CreateIC\01_CPIPC\riscv\RISCV_ENC_20220421\Firmware_true\app_prj\app_demo\Debug/../src/Bsp/Driver/hme_gpio.c:501
	assert_param(NULL != pstGpioObj);
   10e6c:	fdc42783          	lw	a5,-36(s0)
   10e70:	00079a63          	bnez	a5,10e84 <GpioBitsIntrDisable+0x2c>
D:\CreateIC\01_CPIPC\riscv\RISCV_ENC_20220421\Firmware_true\app_prj\app_demo\Debug/../src/Bsp/Driver/hme_gpio.c:501 (discriminator 1)
   10e74:	1f500593          	li	a1,501
   10e78:	000157b7          	lui	a5,0x15
   10e7c:	0c478513          	addi	a0,a5,196 # 150c4 <__init_array_end>
   10e80:	558020ef          	jal	ra,133d8 <assert_failed>
D:\CreateIC\01_CPIPC\riscv\RISCV_ENC_20220421\Firmware_true\app_prj\app_demo\Debug/../src/Bsp/Driver/hme_gpio.c:502
	assert_param(NULL != pstGpioObj->pstCtrller);
   10e84:	fdc42783          	lw	a5,-36(s0)
   10e88:	0147a783          	lw	a5,20(a5)
   10e8c:	00079a63          	bnez	a5,10ea0 <GpioBitsIntrDisable+0x48>
D:\CreateIC\01_CPIPC\riscv\RISCV_ENC_20220421\Firmware_true\app_prj\app_demo\Debug/../src/Bsp/Driver/hme_gpio.c:502 (discriminator 1)
   10e90:	1f600593          	li	a1,502
   10e94:	000157b7          	lui	a5,0x15
   10e98:	0c478513          	addi	a0,a5,196 # 150c4 <__init_array_end>
   10e9c:	53c020ef          	jal	ra,133d8 <assert_failed>
D:\CreateIC\01_CPIPC\riscv\RISCV_ENC_20220421\Firmware_true\app_prj\app_demo\Debug/../src/Bsp/Driver/hme_gpio.c:504

	uint32_t ulTemParam = 0;
   10ea0:	fe042623          	sw	zero,-20(s0)
D:\CreateIC\01_CPIPC\riscv\RISCV_ENC_20220421\Firmware_true\app_prj\app_demo\Debug/../src/Bsp/Driver/hme_gpio.c:505
	uint32_t ulChannels = pstGpioObj->stCfgParam.ulChannels;
   10ea4:	fdc42783          	lw	a5,-36(s0)
   10ea8:	00c7a783          	lw	a5,12(a5)
   10eac:	fef42423          	sw	a5,-24(s0)
D:\CreateIC\01_CPIPC\riscv\RISCV_ENC_20220421\Firmware_true\app_prj\app_demo\Debug/../src/Bsp/Driver/hme_gpio.c:507

	ulTemParam = pstGpioObj->pstCtrller->INTREN;
   10eb0:	fdc42783          	lw	a5,-36(s0)
   10eb4:	0147a783          	lw	a5,20(a5)
   10eb8:	0507a783          	lw	a5,80(a5)
   10ebc:	fef42623          	sw	a5,-20(s0)
D:\CreateIC\01_CPIPC\riscv\RISCV_ENC_20220421\Firmware_true\app_prj\app_demo\Debug/../src/Bsp/Driver/hme_gpio.c:508
	ulTemParam = ulTemParam & (~ulChannels);
   10ec0:	fe842783          	lw	a5,-24(s0)
   10ec4:	fff7c793          	not	a5,a5
   10ec8:	fec42703          	lw	a4,-20(s0)
   10ecc:	00f777b3          	and	a5,a4,a5
   10ed0:	fef42623          	sw	a5,-20(s0)
D:\CreateIC\01_CPIPC\riscv\RISCV_ENC_20220421\Firmware_true\app_prj\app_demo\Debug/../src/Bsp/Driver/hme_gpio.c:509
	pstGpioObj->pstCtrller->INTREN = ulTemParam;
   10ed4:	fdc42783          	lw	a5,-36(s0)
   10ed8:	0147a783          	lw	a5,20(a5)
   10edc:	fec42703          	lw	a4,-20(s0)
   10ee0:	04e7a823          	sw	a4,80(a5)
D:\CreateIC\01_CPIPC\riscv\RISCV_ENC_20220421\Firmware_true\app_prj\app_demo\Debug/../src/Bsp/Driver/hme_gpio.c:510
}
   10ee4:	00000013          	nop
   10ee8:	02c12083          	lw	ra,44(sp)
   10eec:	02812403          	lw	s0,40(sp)
   10ef0:	03010113          	addi	sp,sp,48
   10ef4:	00008067          	ret

00010ef8 <GpioIntrStateGet>:
GpioIntrStateGet():
D:\CreateIC\01_CPIPC\riscv\RISCV_ENC_20220421\Firmware_true\app_prj\app_demo\Debug/../src/Bsp/Driver/hme_gpio.c:518
 * @brief  GPIO中断状态获取
 * @param  pstGpioObj：GPIO设备对象
 * @retval 无
 *****************************************************************/
uint32_t GpioIntrStateGet(PST_GPIO_ATTR pstGpioObj)
{
   10ef8:	fe010113          	addi	sp,sp,-32
   10efc:	00112e23          	sw	ra,28(sp)
   10f00:	00812c23          	sw	s0,24(sp)
   10f04:	02010413          	addi	s0,sp,32
   10f08:	fea42623          	sw	a0,-20(s0)
D:\CreateIC\01_CPIPC\riscv\RISCV_ENC_20220421\Firmware_true\app_prj\app_demo\Debug/../src/Bsp/Driver/hme_gpio.c:519
	assert_param(NULL != pstGpioObj);
   10f0c:	fec42783          	lw	a5,-20(s0)
   10f10:	00079a63          	bnez	a5,10f24 <GpioIntrStateGet+0x2c>
D:\CreateIC\01_CPIPC\riscv\RISCV_ENC_20220421\Firmware_true\app_prj\app_demo\Debug/../src/Bsp/Driver/hme_gpio.c:519 (discriminator 1)
   10f14:	20700593          	li	a1,519
   10f18:	000157b7          	lui	a5,0x15
   10f1c:	0c478513          	addi	a0,a5,196 # 150c4 <__init_array_end>
   10f20:	4b8020ef          	jal	ra,133d8 <assert_failed>
D:\CreateIC\01_CPIPC\riscv\RISCV_ENC_20220421\Firmware_true\app_prj\app_demo\Debug/../src/Bsp/Driver/hme_gpio.c:520
	assert_param(NULL != pstGpioObj->pstCtrller);
   10f24:	fec42783          	lw	a5,-20(s0)
   10f28:	0147a783          	lw	a5,20(a5)
   10f2c:	00079a63          	bnez	a5,10f40 <GpioIntrStateGet+0x48>
D:\CreateIC\01_CPIPC\riscv\RISCV_ENC_20220421\Firmware_true\app_prj\app_demo\Debug/../src/Bsp/Driver/hme_gpio.c:520 (discriminator 1)
   10f30:	20800593          	li	a1,520
   10f34:	000157b7          	lui	a5,0x15
   10f38:	0c478513          	addi	a0,a5,196 # 150c4 <__init_array_end>
   10f3c:	49c020ef          	jal	ra,133d8 <assert_failed>
D:\CreateIC\01_CPIPC\riscv\RISCV_ENC_20220421\Firmware_true\app_prj\app_demo\Debug/../src/Bsp/Driver/hme_gpio.c:522

	return pstGpioObj->pstCtrller->INTRSTATUS;
   10f40:	fec42783          	lw	a5,-20(s0)
   10f44:	0147a783          	lw	a5,20(a5)
   10f48:	0647a783          	lw	a5,100(a5)
D:\CreateIC\01_CPIPC\riscv\RISCV_ENC_20220421\Firmware_true\app_prj\app_demo\Debug/../src/Bsp/Driver/hme_gpio.c:523
}
   10f4c:	00078513          	mv	a0,a5
   10f50:	01c12083          	lw	ra,28(sp)
   10f54:	01812403          	lw	s0,24(sp)
   10f58:	02010113          	addi	sp,sp,32
   10f5c:	00008067          	ret

00010f60 <GpioIntrStateClear>:
GpioIntrStateClear():
D:\CreateIC\01_CPIPC\riscv\RISCV_ENC_20220421\Firmware_true\app_prj\app_demo\Debug/../src/Bsp/Driver/hme_gpio.c:531
 * @brief  GPIO中断状态清除
 * @param  pstGpioObj：GPIO设备对象，ulIntrClearParam：中断清除端口参数
 * @retval 无
 *****************************************************************/
void GpioIntrStateClear(PST_GPIO_ATTR pstGpioObj, uint32_t ulIntrClearParam)
{
   10f60:	fe010113          	addi	sp,sp,-32
   10f64:	00112e23          	sw	ra,28(sp)
   10f68:	00812c23          	sw	s0,24(sp)
   10f6c:	02010413          	addi	s0,sp,32
   10f70:	fea42623          	sw	a0,-20(s0)
   10f74:	feb42423          	sw	a1,-24(s0)
D:\CreateIC\01_CPIPC\riscv\RISCV_ENC_20220421\Firmware_true\app_prj\app_demo\Debug/../src/Bsp/Driver/hme_gpio.c:532
	assert_param(NULL != pstGpioObj);
   10f78:	fec42783          	lw	a5,-20(s0)
   10f7c:	00079a63          	bnez	a5,10f90 <GpioIntrStateClear+0x30>
D:\CreateIC\01_CPIPC\riscv\RISCV_ENC_20220421\Firmware_true\app_prj\app_demo\Debug/../src/Bsp/Driver/hme_gpio.c:532 (discriminator 1)
   10f80:	21400593          	li	a1,532
   10f84:	000157b7          	lui	a5,0x15
   10f88:	0c478513          	addi	a0,a5,196 # 150c4 <__init_array_end>
   10f8c:	44c020ef          	jal	ra,133d8 <assert_failed>
D:\CreateIC\01_CPIPC\riscv\RISCV_ENC_20220421\Firmware_true\app_prj\app_demo\Debug/../src/Bsp/Driver/hme_gpio.c:533
	assert_param(NULL != pstGpioObj->pstCtrller);
   10f90:	fec42783          	lw	a5,-20(s0)
   10f94:	0147a783          	lw	a5,20(a5)
   10f98:	00079a63          	bnez	a5,10fac <GpioIntrStateClear+0x4c>
D:\CreateIC\01_CPIPC\riscv\RISCV_ENC_20220421\Firmware_true\app_prj\app_demo\Debug/../src/Bsp/Driver/hme_gpio.c:533 (discriminator 1)
   10f9c:	21500593          	li	a1,533
   10fa0:	000157b7          	lui	a5,0x15
   10fa4:	0c478513          	addi	a0,a5,196 # 150c4 <__init_array_end>
   10fa8:	430020ef          	jal	ra,133d8 <assert_failed>
D:\CreateIC\01_CPIPC\riscv\RISCV_ENC_20220421\Firmware_true\app_prj\app_demo\Debug/../src/Bsp/Driver/hme_gpio.c:535

    pstGpioObj->pstCtrller->INTRSTATUS = ulIntrClearParam;
   10fac:	fec42783          	lw	a5,-20(s0)
   10fb0:	0147a783          	lw	a5,20(a5)
   10fb4:	fe842703          	lw	a4,-24(s0)
   10fb8:	06e7a223          	sw	a4,100(a5)
D:\CreateIC\01_CPIPC\riscv\RISCV_ENC_20220421\Firmware_true\app_prj\app_demo\Debug/../src/Bsp/Driver/hme_gpio.c:536
}
   10fbc:	00000013          	nop
   10fc0:	01c12083          	lw	ra,28(sp)
   10fc4:	01812403          	lw	s0,24(sp)
   10fc8:	02010113          	addi	sp,sp,32
   10fcc:	00008067          	ret

00010fd0 <PlicGpioHandle>:
PlicGpioHandle():
D:\CreateIC\01_CPIPC\riscv\RISCV_ENC_20220421\Firmware_true\app_prj\app_demo\Debug/../src/Bsp/Driver/hme_gpio.c:544
 * @brief  GPIO中断处理接口
 * @param  ptrBackCall：回调参数
 * @retval 无
 *****************************************************************/
void PlicGpioHandle(void * ptrBackCall)
{
   10fd0:	fd010113          	addi	sp,sp,-48
   10fd4:	02112623          	sw	ra,44(sp)
   10fd8:	02812423          	sw	s0,40(sp)
   10fdc:	03010413          	addi	s0,sp,48
   10fe0:	fca42e23          	sw	a0,-36(s0)
D:\CreateIC\01_CPIPC\riscv\RISCV_ENC_20220421\Firmware_true\app_prj\app_demo\Debug/../src/Bsp/Driver/hme_gpio.c:545
	uint32_t ulIntrState = 0;
   10fe4:	fe042623          	sw	zero,-20(s0)
D:\CreateIC\01_CPIPC\riscv\RISCV_ENC_20220421\Firmware_true\app_prj\app_demo\Debug/../src/Bsp/Driver/hme_gpio.c:546
	PST_GPIO_ATTR ptrGpioObj = NULL;
   10fe8:	fe042423          	sw	zero,-24(s0)
D:\CreateIC\01_CPIPC\riscv\RISCV_ENC_20220421\Firmware_true\app_prj\app_demo\Debug/../src/Bsp/Driver/hme_gpio.c:547
	if (NULL != ptrBackCall)
   10fec:	fdc42783          	lw	a5,-36(s0)
   10ff0:	02078a63          	beqz	a5,11024 <PlicGpioHandle+0x54>
D:\CreateIC\01_CPIPC\riscv\RISCV_ENC_20220421\Firmware_true\app_prj\app_demo\Debug/../src/Bsp/Driver/hme_gpio.c:549
	{
		ptrGpioObj = (PST_GPIO_ATTR)ptrBackCall;
   10ff4:	fdc42783          	lw	a5,-36(s0)
   10ff8:	fef42423          	sw	a5,-24(s0)
D:\CreateIC\01_CPIPC\riscv\RISCV_ENC_20220421\Firmware_true\app_prj\app_demo\Debug/../src/Bsp/Driver/hme_gpio.c:551
		//读取中断状态
		ulIntrState = GpioIntrStateGet(ptrGpioObj);
   10ffc:	fe842503          	lw	a0,-24(s0)
   11000:	ef9ff0ef          	jal	ra,10ef8 <GpioIntrStateGet>
   11004:	fea42623          	sw	a0,-20(s0)
D:\CreateIC\01_CPIPC\riscv\RISCV_ENC_20220421\Firmware_true\app_prj\app_demo\Debug/../src/Bsp/Driver/hme_gpio.c:553
		//执行中断检索和调度
		GpioIntrDispatch(ptrGpioObj, ulIntrState);
   11008:	fec42583          	lw	a1,-20(s0)
   1100c:	fe842503          	lw	a0,-24(s0)
   11010:	034000ef          	jal	ra,11044 <GpioIntrDispatch>
D:\CreateIC\01_CPIPC\riscv\RISCV_ENC_20220421\Firmware_true\app_prj\app_demo\Debug/../src/Bsp/Driver/hme_gpio.c:555
		//清楚GPIO的中断 写中断状态对应的bit位
		GpioIntrStateClear(ptrGpioObj, ulIntrState);
   11014:	fec42583          	lw	a1,-20(s0)
   11018:	fe842503          	lw	a0,-24(s0)
   1101c:	f45ff0ef          	jal	ra,10f60 <GpioIntrStateClear>
D:\CreateIC\01_CPIPC\riscv\RISCV_ENC_20220421\Firmware_true\app_prj\app_demo\Debug/../src/Bsp/Driver/hme_gpio.c:561
	}
	else
	{
		printf("PLIC Gpio Interrupt Err...!\n");
	}
}
   11020:	0100006f          	j	11030 <PlicGpioHandle+0x60>
D:\CreateIC\01_CPIPC\riscv\RISCV_ENC_20220421\Firmware_true\app_prj\app_demo\Debug/../src/Bsp/Driver/hme_gpio.c:559
		printf("PLIC Gpio Interrupt Err...!\n");
   11024:	000157b7          	lui	a5,0x15
   11028:	0e478513          	addi	a0,a5,228 # 150e4 <__init_array_end+0x20>
   1102c:	6c5020ef          	jal	ra,13ef0 <puts>
D:\CreateIC\01_CPIPC\riscv\RISCV_ENC_20220421\Firmware_true\app_prj\app_demo\Debug/../src/Bsp/Driver/hme_gpio.c:561
}
   11030:	00000013          	nop
   11034:	02c12083          	lw	ra,44(sp)
   11038:	02812403          	lw	s0,40(sp)
   1103c:	03010113          	addi	sp,sp,48
   11040:	00008067          	ret

00011044 <GpioIntrDispatch>:
GpioIntrDispatch():
D:\CreateIC\01_CPIPC\riscv\RISCV_ENC_20220421\Firmware_true\app_prj\app_demo\Debug/../src/Bsp/Driver/hme_gpio.c:569
 * @brief  GPIO中断分配
 * @param  pstGpioObj: GPIO设备对象指针， ulIntrParam：分配参数
 * @retval 无
 *****************************************************************/
void GpioIntrDispatch(PST_GPIO_ATTR pstGpioObj, uint32_t ulIntrParam)
{
   11044:	fd010113          	addi	sp,sp,-48
   11048:	02112623          	sw	ra,44(sp)
   1104c:	02812423          	sw	s0,40(sp)
   11050:	03010413          	addi	s0,sp,48
   11054:	fca42e23          	sw	a0,-36(s0)
   11058:	fcb42c23          	sw	a1,-40(s0)
D:\CreateIC\01_CPIPC\riscv\RISCV_ENC_20220421\Firmware_true\app_prj\app_demo\Debug/../src/Bsp/Driver/hme_gpio.c:570
	uint32_t ulCount = 0;
   1105c:	fe042623          	sw	zero,-20(s0)
D:\CreateIC\01_CPIPC\riscv\RISCV_ENC_20220421\Firmware_true\app_prj\app_demo\Debug/../src/Bsp/Driver/hme_gpio.c:571
	for (ulCount = 0; ulCount < 32; ulCount++)
   11060:	fe042623          	sw	zero,-20(s0)
   11064:	02c0006f          	j	11090 <GpioIntrDispatch+0x4c>
D:\CreateIC\01_CPIPC\riscv\RISCV_ENC_20220421\Firmware_true\app_prj\app_demo\Debug/../src/Bsp/Driver/hme_gpio.c:573
	{
		if (ulIntrParam & (1 << ulCount))
   11068:	fec42783          	lw	a5,-20(s0)
   1106c:	00100713          	li	a4,1
   11070:	00f717b3          	sll	a5,a4,a5
   11074:	00078713          	mv	a4,a5
   11078:	fd842783          	lw	a5,-40(s0)
   1107c:	00f777b3          	and	a5,a4,a5
   11080:	02079063          	bnez	a5,110a0 <GpioIntrDispatch+0x5c>
D:\CreateIC\01_CPIPC\riscv\RISCV_ENC_20220421\Firmware_true\app_prj\app_demo\Debug/../src/Bsp/Driver/hme_gpio.c:571 (discriminator 2)
	for (ulCount = 0; ulCount < 32; ulCount++)
   11084:	fec42783          	lw	a5,-20(s0)
   11088:	00178793          	addi	a5,a5,1
   1108c:	fef42623          	sw	a5,-20(s0)
D:\CreateIC\01_CPIPC\riscv\RISCV_ENC_20220421\Firmware_true\app_prj\app_demo\Debug/../src/Bsp/Driver/hme_gpio.c:571 (discriminator 1)
   11090:	fec42703          	lw	a4,-20(s0)
   11094:	01f00793          	li	a5,31
   11098:	fce7f8e3          	bgeu	a5,a4,11068 <GpioIntrDispatch+0x24>
   1109c:	0080006f          	j	110a4 <GpioIntrDispatch+0x60>
D:\CreateIC\01_CPIPC\riscv\RISCV_ENC_20220421\Firmware_true\app_prj\app_demo\Debug/../src/Bsp/Driver/hme_gpio.c:575
		{
			break;
   110a0:	00000013          	nop
   110a4:	fec42783          	lw	a5,-20(s0)
   110a8:	fff78713          	addi	a4,a5,-1
D:\CreateIC\01_CPIPC\riscv\RISCV_ENC_20220421\Firmware_true\app_prj\app_demo\Debug/../src/Bsp/Driver/hme_gpio.c:579
		}
	}

	switch (ulCount)
   110ac:	01f00793          	li	a5,31
   110b0:	00e7e863          	bltu	a5,a4,110c0 <GpioIntrDispatch+0x7c>
D:\CreateIC\01_CPIPC\riscv\RISCV_ENC_20220421\Firmware_true\app_prj\app_demo\Debug/../src/Bsp/Driver/hme_gpio.c:614
	    case 29:
	    case 30:
	    case 31:
	    case 32:
	    {
	    	GpioIntrExecute(pstGpioObj);
   110b4:	fdc42503          	lw	a0,-36(s0)
   110b8:	020000ef          	jal	ra,110d8 <GpioIntrExecute>
D:\CreateIC\01_CPIPC\riscv\RISCV_ENC_20220421\Firmware_true\app_prj\app_demo\Debug/../src/Bsp/Driver/hme_gpio.c:615
	    	break;
   110bc:	0080006f          	j	110c4 <GpioIntrDispatch+0x80>
D:\CreateIC\01_CPIPC\riscv\RISCV_ENC_20220421\Firmware_true\app_prj\app_demo\Debug/../src/Bsp/Driver/hme_gpio.c:618
	    }
	    default:
	    	break;
   110c0:	00000013          	nop
D:\CreateIC\01_CPIPC\riscv\RISCV_ENC_20220421\Firmware_true\app_prj\app_demo\Debug/../src/Bsp/Driver/hme_gpio.c:621
	}

}
   110c4:	00000013          	nop
   110c8:	02c12083          	lw	ra,44(sp)
   110cc:	02812403          	lw	s0,40(sp)
   110d0:	03010113          	addi	sp,sp,48
   110d4:	00008067          	ret

000110d8 <GpioIntrExecute>:
GpioIntrExecute():
D:\CreateIC\01_CPIPC\riscv\RISCV_ENC_20220421\Firmware_true\app_prj\app_demo\Debug/../src/Bsp/Driver/hme_gpio.c:630
 * @param  pstGpioObj：GPIO设备对象指针
 * @retval 无
 * 注意：该接口预留，只作为测试处理
 *****************************************************************/
void GpioIntrExecute(PST_GPIO_ATTR pstGpioObj)
{
   110d8:	fe010113          	addi	sp,sp,-32
   110dc:	00112e23          	sw	ra,28(sp)
   110e0:	00812c23          	sw	s0,24(sp)
   110e4:	02010413          	addi	s0,sp,32
   110e8:	fea42623          	sw	a0,-20(s0)
D:\CreateIC\01_CPIPC\riscv\RISCV_ENC_20220421\Firmware_true\app_prj\app_demo\Debug/../src/Bsp/Driver/hme_gpio.c:631
	printf ("PLIC Gpio Interrupt Execute....\n");
   110ec:	000157b7          	lui	a5,0x15
   110f0:	10078513          	addi	a0,a5,256 # 15100 <__init_array_end+0x3c>
   110f4:	5fd020ef          	jal	ra,13ef0 <puts>
D:\CreateIC\01_CPIPC\riscv\RISCV_ENC_20220421\Firmware_true\app_prj\app_demo\Debug/../src/Bsp/Driver/hme_gpio.c:632
}
   110f8:	00000013          	nop
   110fc:	01c12083          	lw	ra,28(sp)
   11100:	01812403          	lw	s0,24(sp)
   11104:	02010113          	addi	sp,sp,32
   11108:	00008067          	ret

0001110c <PlicClaimGet>:
PlicClaimGet():
D:\CreateIC\01_CPIPC\riscv\RISCV_ENC_20220421\Firmware_true\app_prj\app_demo\Debug/../src/Bsp/Driver/hme_plic.c:41
 * @brief  PLIC中断通知获取
 * @param  无
 * @retval uint16_t：返回中断ID
 *****************************************************************/
uint16_t PlicClaimGet(void)
{
   1110c:	fe010113          	addi	sp,sp,-32
   11110:	00812e23          	sw	s0,28(sp)
   11114:	02010413          	addi	s0,sp,32
D:\CreateIC\01_CPIPC\riscv\RISCV_ENC_20220421\Firmware_true\app_prj\app_demo\Debug/../src/Bsp/Driver/hme_plic.c:42
	uint16_t usClaimVal = EN_DEV_ID_0;
   11118:	fe041723          	sh	zero,-18(s0)
D:\CreateIC\01_CPIPC\riscv\RISCV_ENC_20220421\Firmware_true\app_prj\app_demo\Debug/../src/Bsp/Driver/hme_plic.c:43
	usClaimVal = ReadReg32(PLIC_BASE_ADDR + DEF_PLIC_INT_CLAIM_OFFSET);
   1111c:	f8e007b7          	lui	a5,0xf8e00
   11120:	00478793          	addi	a5,a5,4 # f8e00004 <__freertos_irq_stack_top+0xf8dc1984>
   11124:	0007a783          	lw	a5,0(a5)
   11128:	fef41723          	sh	a5,-18(s0)
D:\CreateIC\01_CPIPC\riscv\RISCV_ENC_20220421\Firmware_true\app_prj\app_demo\Debug/../src/Bsp/Driver/hme_plic.c:44
    return usClaimVal;
   1112c:	fee45783          	lhu	a5,-18(s0)
D:\CreateIC\01_CPIPC\riscv\RISCV_ENC_20220421\Firmware_true\app_prj\app_demo\Debug/../src/Bsp/Driver/hme_plic.c:45
}
   11130:	00078513          	mv	a0,a5
   11134:	01c12403          	lw	s0,28(sp)
   11138:	02010113          	addi	sp,sp,32
   1113c:	00008067          	ret

00011140 <PlicFinishNotice>:
PlicFinishNotice():
D:\CreateIC\01_CPIPC\riscv\RISCV_ENC_20220421\Firmware_true\app_prj\app_demo\Debug/../src/Bsp/Driver/hme_plic.c:53
 * @brief  PLIC中断完成通知
 * @param  usIntrId：中断ID
 * @retval 无
 *****************************************************************/
void PlicFinishNotice(uint16_t usIntrId)
{
   11140:	fe010113          	addi	sp,sp,-32
   11144:	00812e23          	sw	s0,28(sp)
   11148:	02010413          	addi	s0,sp,32
   1114c:	00050793          	mv	a5,a0
   11150:	fef41723          	sh	a5,-18(s0)
D:\CreateIC\01_CPIPC\riscv\RISCV_ENC_20220421\Firmware_true\app_prj\app_demo\Debug/../src/Bsp/Driver/hme_plic.c:54
	WriteReg32(PLIC_BASE_ADDR + DEF_PLIC_INT_FINISH_OFFSET, usIntrId);
   11154:	f8e007b7          	lui	a5,0xf8e00
   11158:	00478793          	addi	a5,a5,4 # f8e00004 <__freertos_irq_stack_top+0xf8dc1984>
   1115c:	fee45703          	lhu	a4,-18(s0)
   11160:	00e7a023          	sw	a4,0(a5)
D:\CreateIC\01_CPIPC\riscv\RISCV_ENC_20220421\Firmware_true\app_prj\app_demo\Debug/../src/Bsp/Driver/hme_plic.c:55
}
   11164:	00000013          	nop
   11168:	01c12403          	lw	s0,28(sp)
   1116c:	02010113          	addi	sp,sp,32
   11170:	00008067          	ret

00011174 <DevIntrIdTableGet>:
DevIntrIdTableGet():
D:\CreateIC\01_CPIPC\riscv\RISCV_ENC_20220421\Firmware_true\app_prj\app_demo\Debug/../src/Bsp/Driver/hme_plic.c:84
 * @brief  根据设备ID查找中断ID
 * @param  usDevId：设备ID
 * @retval uint16_t：返回中断ID
 *****************************************************************/
uint16_t DevIntrIdTableGet(uint16_t usDevId)
{
   11174:	fe010113          	addi	sp,sp,-32
   11178:	00112e23          	sw	ra,28(sp)
   1117c:	00812c23          	sw	s0,24(sp)
   11180:	02010413          	addi	s0,sp,32
   11184:	00050793          	mv	a5,a0
   11188:	fef41723          	sh	a5,-18(s0)
D:\CreateIC\01_CPIPC\riscv\RISCV_ENC_20220421\Firmware_true\app_prj\app_demo\Debug/../src/Bsp/Driver/hme_plic.c:85
	assert_param(IS_DEV_ID(usDevId));
   1118c:	fee45783          	lhu	a5,-18(s0)
   11190:	0a078263          	beqz	a5,11234 <DevIntrIdTableGet+0xc0>
D:\CreateIC\01_CPIPC\riscv\RISCV_ENC_20220421\Firmware_true\app_prj\app_demo\Debug/../src/Bsp/Driver/hme_plic.c:85 (discriminator 1)
   11194:	fee45703          	lhu	a4,-18(s0)
   11198:	00100793          	li	a5,1
   1119c:	08f70c63          	beq	a4,a5,11234 <DevIntrIdTableGet+0xc0>
D:\CreateIC\01_CPIPC\riscv\RISCV_ENC_20220421\Firmware_true\app_prj\app_demo\Debug/../src/Bsp/Driver/hme_plic.c:85 (discriminator 2)
   111a0:	fee45703          	lhu	a4,-18(s0)
   111a4:	00200793          	li	a5,2
   111a8:	08f70663          	beq	a4,a5,11234 <DevIntrIdTableGet+0xc0>
D:\CreateIC\01_CPIPC\riscv\RISCV_ENC_20220421\Firmware_true\app_prj\app_demo\Debug/../src/Bsp/Driver/hme_plic.c:85 (discriminator 3)
   111ac:	fee45703          	lhu	a4,-18(s0)
   111b0:	00300793          	li	a5,3
   111b4:	08f70063          	beq	a4,a5,11234 <DevIntrIdTableGet+0xc0>
D:\CreateIC\01_CPIPC\riscv\RISCV_ENC_20220421\Firmware_true\app_prj\app_demo\Debug/../src/Bsp/Driver/hme_plic.c:85 (discriminator 4)
   111b8:	fee45703          	lhu	a4,-18(s0)
   111bc:	00400793          	li	a5,4
   111c0:	06f70a63          	beq	a4,a5,11234 <DevIntrIdTableGet+0xc0>
D:\CreateIC\01_CPIPC\riscv\RISCV_ENC_20220421\Firmware_true\app_prj\app_demo\Debug/../src/Bsp/Driver/hme_plic.c:85 (discriminator 5)
   111c4:	fee45703          	lhu	a4,-18(s0)
   111c8:	00500793          	li	a5,5
   111cc:	06f70463          	beq	a4,a5,11234 <DevIntrIdTableGet+0xc0>
D:\CreateIC\01_CPIPC\riscv\RISCV_ENC_20220421\Firmware_true\app_prj\app_demo\Debug/../src/Bsp/Driver/hme_plic.c:85 (discriminator 6)
   111d0:	fee45703          	lhu	a4,-18(s0)
   111d4:	00600793          	li	a5,6
   111d8:	04f70e63          	beq	a4,a5,11234 <DevIntrIdTableGet+0xc0>
D:\CreateIC\01_CPIPC\riscv\RISCV_ENC_20220421\Firmware_true\app_prj\app_demo\Debug/../src/Bsp/Driver/hme_plic.c:85 (discriminator 7)
   111dc:	fee45703          	lhu	a4,-18(s0)
   111e0:	00700793          	li	a5,7
   111e4:	04f70863          	beq	a4,a5,11234 <DevIntrIdTableGet+0xc0>
D:\CreateIC\01_CPIPC\riscv\RISCV_ENC_20220421\Firmware_true\app_prj\app_demo\Debug/../src/Bsp/Driver/hme_plic.c:85 (discriminator 8)
   111e8:	fee45703          	lhu	a4,-18(s0)
   111ec:	00800793          	li	a5,8
   111f0:	04f70263          	beq	a4,a5,11234 <DevIntrIdTableGet+0xc0>
D:\CreateIC\01_CPIPC\riscv\RISCV_ENC_20220421\Firmware_true\app_prj\app_demo\Debug/../src/Bsp/Driver/hme_plic.c:85 (discriminator 9)
   111f4:	fee45703          	lhu	a4,-18(s0)
   111f8:	00900793          	li	a5,9
   111fc:	02f70c63          	beq	a4,a5,11234 <DevIntrIdTableGet+0xc0>
D:\CreateIC\01_CPIPC\riscv\RISCV_ENC_20220421\Firmware_true\app_prj\app_demo\Debug/../src/Bsp/Driver/hme_plic.c:85 (discriminator 10)
   11200:	fee45703          	lhu	a4,-18(s0)
   11204:	00a00793          	li	a5,10
   11208:	02f70663          	beq	a4,a5,11234 <DevIntrIdTableGet+0xc0>
D:\CreateIC\01_CPIPC\riscv\RISCV_ENC_20220421\Firmware_true\app_prj\app_demo\Debug/../src/Bsp/Driver/hme_plic.c:85 (discriminator 11)
   1120c:	fee45703          	lhu	a4,-18(s0)
   11210:	00b00793          	li	a5,11
   11214:	02f70063          	beq	a4,a5,11234 <DevIntrIdTableGet+0xc0>
D:\CreateIC\01_CPIPC\riscv\RISCV_ENC_20220421\Firmware_true\app_prj\app_demo\Debug/../src/Bsp/Driver/hme_plic.c:85 (discriminator 12)
   11218:	fee45703          	lhu	a4,-18(s0)
   1121c:	00c00793          	li	a5,12
   11220:	00f70a63          	beq	a4,a5,11234 <DevIntrIdTableGet+0xc0>
D:\CreateIC\01_CPIPC\riscv\RISCV_ENC_20220421\Firmware_true\app_prj\app_demo\Debug/../src/Bsp/Driver/hme_plic.c:85 (discriminator 13)
   11224:	05500593          	li	a1,85
   11228:	000157b7          	lui	a5,0x15
   1122c:	12078513          	addi	a0,a5,288 # 15120 <__init_array_end+0x5c>
   11230:	1a8020ef          	jal	ra,133d8 <assert_failed>
D:\CreateIC\01_CPIPC\riscv\RISCV_ENC_20220421\Firmware_true\app_prj\app_demo\Debug/../src/Bsp/Driver/hme_plic.c:87

	return astDevParam[usDevId].usIntrId;
   11234:	fee45783          	lhu	a5,-18(s0)
   11238:	00015737          	lui	a4,0x15
   1123c:	42870713          	addi	a4,a4,1064 # 15428 <astDevParam>
   11240:	00479793          	slli	a5,a5,0x4
   11244:	00f707b3          	add	a5,a4,a5
   11248:	0027d783          	lhu	a5,2(a5)
D:\CreateIC\01_CPIPC\riscv\RISCV_ENC_20220421\Firmware_true\app_prj\app_demo\Debug/../src/Bsp/Driver/hme_plic.c:88
}
   1124c:	00078513          	mv	a0,a5
   11250:	01c12083          	lw	ra,28(sp)
   11254:	01812403          	lw	s0,24(sp)
   11258:	02010113          	addi	sp,sp,32
   1125c:	00008067          	ret

00011260 <DevPriorityOffsetTableGet>:
DevPriorityOffsetTableGet():
D:\CreateIC\01_CPIPC\riscv\RISCV_ENC_20220421\Firmware_true\app_prj\app_demo\Debug/../src/Bsp/Driver/hme_plic.c:96
 * @brief  根据设备ID查找优先级配置寄存器的偏移地址
 * @param  usDevId：设备ID
 * @retval uint32_t：返回优先级寄存器偏移地址
 *****************************************************************/
uint32_t DevPriorityOffsetTableGet(uint16_t usDevId)
{
   11260:	fe010113          	addi	sp,sp,-32
   11264:	00112e23          	sw	ra,28(sp)
   11268:	00812c23          	sw	s0,24(sp)
   1126c:	02010413          	addi	s0,sp,32
   11270:	00050793          	mv	a5,a0
   11274:	fef41723          	sh	a5,-18(s0)
D:\CreateIC\01_CPIPC\riscv\RISCV_ENC_20220421\Firmware_true\app_prj\app_demo\Debug/../src/Bsp/Driver/hme_plic.c:97
	assert_param(IS_DEV_ID(usDevId));
   11278:	fee45783          	lhu	a5,-18(s0)
   1127c:	0a078263          	beqz	a5,11320 <DevPriorityOffsetTableGet+0xc0>
D:\CreateIC\01_CPIPC\riscv\RISCV_ENC_20220421\Firmware_true\app_prj\app_demo\Debug/../src/Bsp/Driver/hme_plic.c:97 (discriminator 1)
   11280:	fee45703          	lhu	a4,-18(s0)
   11284:	00100793          	li	a5,1
   11288:	08f70c63          	beq	a4,a5,11320 <DevPriorityOffsetTableGet+0xc0>
D:\CreateIC\01_CPIPC\riscv\RISCV_ENC_20220421\Firmware_true\app_prj\app_demo\Debug/../src/Bsp/Driver/hme_plic.c:97 (discriminator 2)
   1128c:	fee45703          	lhu	a4,-18(s0)
   11290:	00200793          	li	a5,2
   11294:	08f70663          	beq	a4,a5,11320 <DevPriorityOffsetTableGet+0xc0>
D:\CreateIC\01_CPIPC\riscv\RISCV_ENC_20220421\Firmware_true\app_prj\app_demo\Debug/../src/Bsp/Driver/hme_plic.c:97 (discriminator 3)
   11298:	fee45703          	lhu	a4,-18(s0)
   1129c:	00300793          	li	a5,3
   112a0:	08f70063          	beq	a4,a5,11320 <DevPriorityOffsetTableGet+0xc0>
D:\CreateIC\01_CPIPC\riscv\RISCV_ENC_20220421\Firmware_true\app_prj\app_demo\Debug/../src/Bsp/Driver/hme_plic.c:97 (discriminator 4)
   112a4:	fee45703          	lhu	a4,-18(s0)
   112a8:	00400793          	li	a5,4
   112ac:	06f70a63          	beq	a4,a5,11320 <DevPriorityOffsetTableGet+0xc0>
D:\CreateIC\01_CPIPC\riscv\RISCV_ENC_20220421\Firmware_true\app_prj\app_demo\Debug/../src/Bsp/Driver/hme_plic.c:97 (discriminator 5)
   112b0:	fee45703          	lhu	a4,-18(s0)
   112b4:	00500793          	li	a5,5
   112b8:	06f70463          	beq	a4,a5,11320 <DevPriorityOffsetTableGet+0xc0>
D:\CreateIC\01_CPIPC\riscv\RISCV_ENC_20220421\Firmware_true\app_prj\app_demo\Debug/../src/Bsp/Driver/hme_plic.c:97 (discriminator 6)
   112bc:	fee45703          	lhu	a4,-18(s0)
   112c0:	00600793          	li	a5,6
   112c4:	04f70e63          	beq	a4,a5,11320 <DevPriorityOffsetTableGet+0xc0>
D:\CreateIC\01_CPIPC\riscv\RISCV_ENC_20220421\Firmware_true\app_prj\app_demo\Debug/../src/Bsp/Driver/hme_plic.c:97 (discriminator 7)
   112c8:	fee45703          	lhu	a4,-18(s0)
   112cc:	00700793          	li	a5,7
   112d0:	04f70863          	beq	a4,a5,11320 <DevPriorityOffsetTableGet+0xc0>
D:\CreateIC\01_CPIPC\riscv\RISCV_ENC_20220421\Firmware_true\app_prj\app_demo\Debug/../src/Bsp/Driver/hme_plic.c:97 (discriminator 8)
   112d4:	fee45703          	lhu	a4,-18(s0)
   112d8:	00800793          	li	a5,8
   112dc:	04f70263          	beq	a4,a5,11320 <DevPriorityOffsetTableGet+0xc0>
D:\CreateIC\01_CPIPC\riscv\RISCV_ENC_20220421\Firmware_true\app_prj\app_demo\Debug/../src/Bsp/Driver/hme_plic.c:97 (discriminator 9)
   112e0:	fee45703          	lhu	a4,-18(s0)
   112e4:	00900793          	li	a5,9
   112e8:	02f70c63          	beq	a4,a5,11320 <DevPriorityOffsetTableGet+0xc0>
D:\CreateIC\01_CPIPC\riscv\RISCV_ENC_20220421\Firmware_true\app_prj\app_demo\Debug/../src/Bsp/Driver/hme_plic.c:97 (discriminator 10)
   112ec:	fee45703          	lhu	a4,-18(s0)
   112f0:	00a00793          	li	a5,10
   112f4:	02f70663          	beq	a4,a5,11320 <DevPriorityOffsetTableGet+0xc0>
D:\CreateIC\01_CPIPC\riscv\RISCV_ENC_20220421\Firmware_true\app_prj\app_demo\Debug/../src/Bsp/Driver/hme_plic.c:97 (discriminator 11)
   112f8:	fee45703          	lhu	a4,-18(s0)
   112fc:	00b00793          	li	a5,11
   11300:	02f70063          	beq	a4,a5,11320 <DevPriorityOffsetTableGet+0xc0>
D:\CreateIC\01_CPIPC\riscv\RISCV_ENC_20220421\Firmware_true\app_prj\app_demo\Debug/../src/Bsp/Driver/hme_plic.c:97 (discriminator 12)
   11304:	fee45703          	lhu	a4,-18(s0)
   11308:	00c00793          	li	a5,12
   1130c:	00f70a63          	beq	a4,a5,11320 <DevPriorityOffsetTableGet+0xc0>
D:\CreateIC\01_CPIPC\riscv\RISCV_ENC_20220421\Firmware_true\app_prj\app_demo\Debug/../src/Bsp/Driver/hme_plic.c:97 (discriminator 13)
   11310:	06100593          	li	a1,97
   11314:	000157b7          	lui	a5,0x15
   11318:	12078513          	addi	a0,a5,288 # 15120 <__init_array_end+0x5c>
   1131c:	0bc020ef          	jal	ra,133d8 <assert_failed>
D:\CreateIC\01_CPIPC\riscv\RISCV_ENC_20220421\Firmware_true\app_prj\app_demo\Debug/../src/Bsp/Driver/hme_plic.c:99

	return astDevParam[usDevId].ulPriorityOffset;
   11320:	fee45783          	lhu	a5,-18(s0)
   11324:	00015737          	lui	a4,0x15
   11328:	42870713          	addi	a4,a4,1064 # 15428 <astDevParam>
   1132c:	00479793          	slli	a5,a5,0x4
   11330:	00f707b3          	add	a5,a4,a5
   11334:	0047a783          	lw	a5,4(a5)
D:\CreateIC\01_CPIPC\riscv\RISCV_ENC_20220421\Firmware_true\app_prj\app_demo\Debug/../src/Bsp/Driver/hme_plic.c:100
}
   11338:	00078513          	mv	a0,a5
   1133c:	01c12083          	lw	ra,28(sp)
   11340:	01812403          	lw	s0,24(sp)
   11344:	02010113          	addi	sp,sp,32
   11348:	00008067          	ret

0001134c <DevIntrEnTableGet>:
DevIntrEnTableGet():
D:\CreateIC\01_CPIPC\riscv\RISCV_ENC_20220421\Firmware_true\app_prj\app_demo\Debug/../src/Bsp/Driver/hme_plic.c:120
 * @brief  根据设备ID查找中断使能配置值
 * @param  usDevId：设备ID
 * @retval uint32_t：返回使能配置值
 *****************************************************************/
uint32_t DevIntrEnTableGet(uint16_t usDevId)
{
   1134c:	fe010113          	addi	sp,sp,-32
   11350:	00112e23          	sw	ra,28(sp)
   11354:	00812c23          	sw	s0,24(sp)
   11358:	02010413          	addi	s0,sp,32
   1135c:	00050793          	mv	a5,a0
   11360:	fef41723          	sh	a5,-18(s0)
D:\CreateIC\01_CPIPC\riscv\RISCV_ENC_20220421\Firmware_true\app_prj\app_demo\Debug/../src/Bsp/Driver/hme_plic.c:121
	assert_param(IS_DEV_ID(usDevId));
   11364:	fee45783          	lhu	a5,-18(s0)
   11368:	0a078263          	beqz	a5,1140c <DevIntrEnTableGet+0xc0>
D:\CreateIC\01_CPIPC\riscv\RISCV_ENC_20220421\Firmware_true\app_prj\app_demo\Debug/../src/Bsp/Driver/hme_plic.c:121 (discriminator 1)
   1136c:	fee45703          	lhu	a4,-18(s0)
   11370:	00100793          	li	a5,1
   11374:	08f70c63          	beq	a4,a5,1140c <DevIntrEnTableGet+0xc0>
D:\CreateIC\01_CPIPC\riscv\RISCV_ENC_20220421\Firmware_true\app_prj\app_demo\Debug/../src/Bsp/Driver/hme_plic.c:121 (discriminator 2)
   11378:	fee45703          	lhu	a4,-18(s0)
   1137c:	00200793          	li	a5,2
   11380:	08f70663          	beq	a4,a5,1140c <DevIntrEnTableGet+0xc0>
D:\CreateIC\01_CPIPC\riscv\RISCV_ENC_20220421\Firmware_true\app_prj\app_demo\Debug/../src/Bsp/Driver/hme_plic.c:121 (discriminator 3)
   11384:	fee45703          	lhu	a4,-18(s0)
   11388:	00300793          	li	a5,3
   1138c:	08f70063          	beq	a4,a5,1140c <DevIntrEnTableGet+0xc0>
D:\CreateIC\01_CPIPC\riscv\RISCV_ENC_20220421\Firmware_true\app_prj\app_demo\Debug/../src/Bsp/Driver/hme_plic.c:121 (discriminator 4)
   11390:	fee45703          	lhu	a4,-18(s0)
   11394:	00400793          	li	a5,4
   11398:	06f70a63          	beq	a4,a5,1140c <DevIntrEnTableGet+0xc0>
D:\CreateIC\01_CPIPC\riscv\RISCV_ENC_20220421\Firmware_true\app_prj\app_demo\Debug/../src/Bsp/Driver/hme_plic.c:121 (discriminator 5)
   1139c:	fee45703          	lhu	a4,-18(s0)
   113a0:	00500793          	li	a5,5
   113a4:	06f70463          	beq	a4,a5,1140c <DevIntrEnTableGet+0xc0>
D:\CreateIC\01_CPIPC\riscv\RISCV_ENC_20220421\Firmware_true\app_prj\app_demo\Debug/../src/Bsp/Driver/hme_plic.c:121 (discriminator 6)
   113a8:	fee45703          	lhu	a4,-18(s0)
   113ac:	00600793          	li	a5,6
   113b0:	04f70e63          	beq	a4,a5,1140c <DevIntrEnTableGet+0xc0>
D:\CreateIC\01_CPIPC\riscv\RISCV_ENC_20220421\Firmware_true\app_prj\app_demo\Debug/../src/Bsp/Driver/hme_plic.c:121 (discriminator 7)
   113b4:	fee45703          	lhu	a4,-18(s0)
   113b8:	00700793          	li	a5,7
   113bc:	04f70863          	beq	a4,a5,1140c <DevIntrEnTableGet+0xc0>
D:\CreateIC\01_CPIPC\riscv\RISCV_ENC_20220421\Firmware_true\app_prj\app_demo\Debug/../src/Bsp/Driver/hme_plic.c:121 (discriminator 8)
   113c0:	fee45703          	lhu	a4,-18(s0)
   113c4:	00800793          	li	a5,8
   113c8:	04f70263          	beq	a4,a5,1140c <DevIntrEnTableGet+0xc0>
D:\CreateIC\01_CPIPC\riscv\RISCV_ENC_20220421\Firmware_true\app_prj\app_demo\Debug/../src/Bsp/Driver/hme_plic.c:121 (discriminator 9)
   113cc:	fee45703          	lhu	a4,-18(s0)
   113d0:	00900793          	li	a5,9
   113d4:	02f70c63          	beq	a4,a5,1140c <DevIntrEnTableGet+0xc0>
D:\CreateIC\01_CPIPC\riscv\RISCV_ENC_20220421\Firmware_true\app_prj\app_demo\Debug/../src/Bsp/Driver/hme_plic.c:121 (discriminator 10)
   113d8:	fee45703          	lhu	a4,-18(s0)
   113dc:	00a00793          	li	a5,10
   113e0:	02f70663          	beq	a4,a5,1140c <DevIntrEnTableGet+0xc0>
D:\CreateIC\01_CPIPC\riscv\RISCV_ENC_20220421\Firmware_true\app_prj\app_demo\Debug/../src/Bsp/Driver/hme_plic.c:121 (discriminator 11)
   113e4:	fee45703          	lhu	a4,-18(s0)
   113e8:	00b00793          	li	a5,11
   113ec:	02f70063          	beq	a4,a5,1140c <DevIntrEnTableGet+0xc0>
D:\CreateIC\01_CPIPC\riscv\RISCV_ENC_20220421\Firmware_true\app_prj\app_demo\Debug/../src/Bsp/Driver/hme_plic.c:121 (discriminator 12)
   113f0:	fee45703          	lhu	a4,-18(s0)
   113f4:	00c00793          	li	a5,12
   113f8:	00f70a63          	beq	a4,a5,1140c <DevIntrEnTableGet+0xc0>
D:\CreateIC\01_CPIPC\riscv\RISCV_ENC_20220421\Firmware_true\app_prj\app_demo\Debug/../src/Bsp/Driver/hme_plic.c:121 (discriminator 13)
   113fc:	07900593          	li	a1,121
   11400:	000157b7          	lui	a5,0x15
   11404:	12078513          	addi	a0,a5,288 # 15120 <__init_array_end+0x5c>
   11408:	7d1010ef          	jal	ra,133d8 <assert_failed>
D:\CreateIC\01_CPIPC\riscv\RISCV_ENC_20220421\Firmware_true\app_prj\app_demo\Debug/../src/Bsp/Driver/hme_plic.c:123

	return astDevParam[usDevId].ulIntrEnable;
   1140c:	fee45783          	lhu	a5,-18(s0)
   11410:	00015737          	lui	a4,0x15
   11414:	42870713          	addi	a4,a4,1064 # 15428 <astDevParam>
   11418:	00479793          	slli	a5,a5,0x4
   1141c:	00f707b3          	add	a5,a4,a5
   11420:	00c7a783          	lw	a5,12(a5)
D:\CreateIC\01_CPIPC\riscv\RISCV_ENC_20220421\Firmware_true\app_prj\app_demo\Debug/../src/Bsp/Driver/hme_plic.c:124
}
   11424:	00078513          	mv	a0,a5
   11428:	01c12083          	lw	ra,28(sp)
   1142c:	01812403          	lw	s0,24(sp)
   11430:	02010113          	addi	sp,sp,32
   11434:	00008067          	ret

00011438 <IntrPrioritySet>:
IntrPrioritySet():
D:\CreateIC\01_CPIPC\riscv\RISCV_ENC_20220421\Firmware_true\app_prj\app_demo\Debug/../src/Bsp/Driver/hme_plic.c:132
 * @brief  根据设备ID配置中断优先级
 * @param  usDevId：设备ID， ucPriority优先级参数
 * @retval 无
 *****************************************************************/
void IntrPrioritySet(uint16_t usDevId, uint8_t ucPriority)
{
   11438:	fd010113          	addi	sp,sp,-48
   1143c:	02112623          	sw	ra,44(sp)
   11440:	02812423          	sw	s0,40(sp)
   11444:	03010413          	addi	s0,sp,48
   11448:	00050793          	mv	a5,a0
   1144c:	00058713          	mv	a4,a1
   11450:	fcf41f23          	sh	a5,-34(s0)
   11454:	00070793          	mv	a5,a4
   11458:	fcf40ea3          	sb	a5,-35(s0)
D:\CreateIC\01_CPIPC\riscv\RISCV_ENC_20220421\Firmware_true\app_prj\app_demo\Debug/../src/Bsp/Driver/hme_plic.c:133
	assert_param(IS_DEV_ID(usDevId));
   1145c:	fde45783          	lhu	a5,-34(s0)
   11460:	0a078263          	beqz	a5,11504 <IntrPrioritySet+0xcc>
D:\CreateIC\01_CPIPC\riscv\RISCV_ENC_20220421\Firmware_true\app_prj\app_demo\Debug/../src/Bsp/Driver/hme_plic.c:133 (discriminator 1)
   11464:	fde45703          	lhu	a4,-34(s0)
   11468:	00100793          	li	a5,1
   1146c:	08f70c63          	beq	a4,a5,11504 <IntrPrioritySet+0xcc>
D:\CreateIC\01_CPIPC\riscv\RISCV_ENC_20220421\Firmware_true\app_prj\app_demo\Debug/../src/Bsp/Driver/hme_plic.c:133 (discriminator 2)
   11470:	fde45703          	lhu	a4,-34(s0)
   11474:	00200793          	li	a5,2
   11478:	08f70663          	beq	a4,a5,11504 <IntrPrioritySet+0xcc>
D:\CreateIC\01_CPIPC\riscv\RISCV_ENC_20220421\Firmware_true\app_prj\app_demo\Debug/../src/Bsp/Driver/hme_plic.c:133 (discriminator 3)
   1147c:	fde45703          	lhu	a4,-34(s0)
   11480:	00300793          	li	a5,3
   11484:	08f70063          	beq	a4,a5,11504 <IntrPrioritySet+0xcc>
D:\CreateIC\01_CPIPC\riscv\RISCV_ENC_20220421\Firmware_true\app_prj\app_demo\Debug/../src/Bsp/Driver/hme_plic.c:133 (discriminator 4)
   11488:	fde45703          	lhu	a4,-34(s0)
   1148c:	00400793          	li	a5,4
   11490:	06f70a63          	beq	a4,a5,11504 <IntrPrioritySet+0xcc>
D:\CreateIC\01_CPIPC\riscv\RISCV_ENC_20220421\Firmware_true\app_prj\app_demo\Debug/../src/Bsp/Driver/hme_plic.c:133 (discriminator 5)
   11494:	fde45703          	lhu	a4,-34(s0)
   11498:	00500793          	li	a5,5
   1149c:	06f70463          	beq	a4,a5,11504 <IntrPrioritySet+0xcc>
D:\CreateIC\01_CPIPC\riscv\RISCV_ENC_20220421\Firmware_true\app_prj\app_demo\Debug/../src/Bsp/Driver/hme_plic.c:133 (discriminator 6)
   114a0:	fde45703          	lhu	a4,-34(s0)
   114a4:	00600793          	li	a5,6
   114a8:	04f70e63          	beq	a4,a5,11504 <IntrPrioritySet+0xcc>
D:\CreateIC\01_CPIPC\riscv\RISCV_ENC_20220421\Firmware_true\app_prj\app_demo\Debug/../src/Bsp/Driver/hme_plic.c:133 (discriminator 7)
   114ac:	fde45703          	lhu	a4,-34(s0)
   114b0:	00700793          	li	a5,7
   114b4:	04f70863          	beq	a4,a5,11504 <IntrPrioritySet+0xcc>
D:\CreateIC\01_CPIPC\riscv\RISCV_ENC_20220421\Firmware_true\app_prj\app_demo\Debug/../src/Bsp/Driver/hme_plic.c:133 (discriminator 8)
   114b8:	fde45703          	lhu	a4,-34(s0)
   114bc:	00800793          	li	a5,8
   114c0:	04f70263          	beq	a4,a5,11504 <IntrPrioritySet+0xcc>
D:\CreateIC\01_CPIPC\riscv\RISCV_ENC_20220421\Firmware_true\app_prj\app_demo\Debug/../src/Bsp/Driver/hme_plic.c:133 (discriminator 9)
   114c4:	fde45703          	lhu	a4,-34(s0)
   114c8:	00900793          	li	a5,9
   114cc:	02f70c63          	beq	a4,a5,11504 <IntrPrioritySet+0xcc>
D:\CreateIC\01_CPIPC\riscv\RISCV_ENC_20220421\Firmware_true\app_prj\app_demo\Debug/../src/Bsp/Driver/hme_plic.c:133 (discriminator 10)
   114d0:	fde45703          	lhu	a4,-34(s0)
   114d4:	00a00793          	li	a5,10
   114d8:	02f70663          	beq	a4,a5,11504 <IntrPrioritySet+0xcc>
D:\CreateIC\01_CPIPC\riscv\RISCV_ENC_20220421\Firmware_true\app_prj\app_demo\Debug/../src/Bsp/Driver/hme_plic.c:133 (discriminator 11)
   114dc:	fde45703          	lhu	a4,-34(s0)
   114e0:	00b00793          	li	a5,11
   114e4:	02f70063          	beq	a4,a5,11504 <IntrPrioritySet+0xcc>
D:\CreateIC\01_CPIPC\riscv\RISCV_ENC_20220421\Firmware_true\app_prj\app_demo\Debug/../src/Bsp/Driver/hme_plic.c:133 (discriminator 12)
   114e8:	fde45703          	lhu	a4,-34(s0)
   114ec:	00c00793          	li	a5,12
   114f0:	00f70a63          	beq	a4,a5,11504 <IntrPrioritySet+0xcc>
D:\CreateIC\01_CPIPC\riscv\RISCV_ENC_20220421\Firmware_true\app_prj\app_demo\Debug/../src/Bsp/Driver/hme_plic.c:133 (discriminator 13)
   114f4:	08500593          	li	a1,133
   114f8:	000157b7          	lui	a5,0x15
   114fc:	12078513          	addi	a0,a5,288 # 15120 <__init_array_end+0x5c>
   11500:	6d9010ef          	jal	ra,133d8 <assert_failed>
D:\CreateIC\01_CPIPC\riscv\RISCV_ENC_20220421\Firmware_true\app_prj\app_demo\Debug/../src/Bsp/Driver/hme_plic.c:134
	assert_param(IS_PLIC_PRIORITY(ucPriority));
   11504:	fdd44783          	lbu	a5,-35(s0)
   11508:	02078c63          	beqz	a5,11540 <IntrPrioritySet+0x108>
D:\CreateIC\01_CPIPC\riscv\RISCV_ENC_20220421\Firmware_true\app_prj\app_demo\Debug/../src/Bsp/Driver/hme_plic.c:134 (discriminator 1)
   1150c:	fdd44703          	lbu	a4,-35(s0)
   11510:	00100793          	li	a5,1
   11514:	02f70663          	beq	a4,a5,11540 <IntrPrioritySet+0x108>
D:\CreateIC\01_CPIPC\riscv\RISCV_ENC_20220421\Firmware_true\app_prj\app_demo\Debug/../src/Bsp/Driver/hme_plic.c:134 (discriminator 2)
   11518:	fdd44703          	lbu	a4,-35(s0)
   1151c:	00200793          	li	a5,2
   11520:	02f70063          	beq	a4,a5,11540 <IntrPrioritySet+0x108>
D:\CreateIC\01_CPIPC\riscv\RISCV_ENC_20220421\Firmware_true\app_prj\app_demo\Debug/../src/Bsp/Driver/hme_plic.c:134 (discriminator 3)
   11524:	fdd44703          	lbu	a4,-35(s0)
   11528:	00300793          	li	a5,3
   1152c:	00f70a63          	beq	a4,a5,11540 <IntrPrioritySet+0x108>
D:\CreateIC\01_CPIPC\riscv\RISCV_ENC_20220421\Firmware_true\app_prj\app_demo\Debug/../src/Bsp/Driver/hme_plic.c:134 (discriminator 4)
   11530:	08600593          	li	a1,134
   11534:	000157b7          	lui	a5,0x15
   11538:	12078513          	addi	a0,a5,288 # 15120 <__init_array_end+0x5c>
   1153c:	69d010ef          	jal	ra,133d8 <assert_failed>
D:\CreateIC\01_CPIPC\riscv\RISCV_ENC_20220421\Firmware_true\app_prj\app_demo\Debug/../src/Bsp/Driver/hme_plic.c:136

	uint32_t ulPriorityOffset = 0;
   11540:	fe042623          	sw	zero,-20(s0)
D:\CreateIC\01_CPIPC\riscv\RISCV_ENC_20220421\Firmware_true\app_prj\app_demo\Debug/../src/Bsp/Driver/hme_plic.c:138

	ulPriorityOffset = DevPriorityOffsetTableGet(usDevId);
   11544:	fde45783          	lhu	a5,-34(s0)
   11548:	00078513          	mv	a0,a5
   1154c:	d15ff0ef          	jal	ra,11260 <DevPriorityOffsetTableGet>
   11550:	fea42623          	sw	a0,-20(s0)
D:\CreateIC\01_CPIPC\riscv\RISCV_ENC_20220421\Firmware_true\app_prj\app_demo\Debug/../src/Bsp/Driver/hme_plic.c:139
    WriteReg32(PLIC_BASE_ADDR + ulPriorityOffset, ucPriority);
   11554:	fec42703          	lw	a4,-20(s0)
   11558:	f8c007b7          	lui	a5,0xf8c00
   1155c:	00f707b3          	add	a5,a4,a5
   11560:	00078713          	mv	a4,a5
   11564:	fdd44783          	lbu	a5,-35(s0)
   11568:	00f72023          	sw	a5,0(a4)
D:\CreateIC\01_CPIPC\riscv\RISCV_ENC_20220421\Firmware_true\app_prj\app_demo\Debug/../src/Bsp/Driver/hme_plic.c:140
}
   1156c:	00000013          	nop
   11570:	02c12083          	lw	ra,44(sp)
   11574:	02812403          	lw	s0,40(sp)
   11578:	03010113          	addi	sp,sp,48
   1157c:	00008067          	ret

00011580 <IntrPriorityGet>:
IntrPriorityGet():
D:\CreateIC\01_CPIPC\riscv\RISCV_ENC_20220421\Firmware_true\app_prj\app_demo\Debug/../src/Bsp/Driver/hme_plic.c:148
 * @brief  根据设备ID获取中断优先级
 * @param  usDevId：设备ID
 * @retval uint32_t：返回中断优先级的值
 *****************************************************************/
uint32_t IntrPriorityGet(uint16_t usDevId)
{
   11580:	fd010113          	addi	sp,sp,-48
   11584:	02112623          	sw	ra,44(sp)
   11588:	02812423          	sw	s0,40(sp)
   1158c:	03010413          	addi	s0,sp,48
   11590:	00050793          	mv	a5,a0
   11594:	fcf41f23          	sh	a5,-34(s0)
D:\CreateIC\01_CPIPC\riscv\RISCV_ENC_20220421\Firmware_true\app_prj\app_demo\Debug/../src/Bsp/Driver/hme_plic.c:149
	assert_param(IS_DEV_ID(usDevId));
   11598:	fde45783          	lhu	a5,-34(s0)
   1159c:	0a078263          	beqz	a5,11640 <IntrPriorityGet+0xc0>
D:\CreateIC\01_CPIPC\riscv\RISCV_ENC_20220421\Firmware_true\app_prj\app_demo\Debug/../src/Bsp/Driver/hme_plic.c:149 (discriminator 1)
   115a0:	fde45703          	lhu	a4,-34(s0)
   115a4:	00100793          	li	a5,1
   115a8:	08f70c63          	beq	a4,a5,11640 <IntrPriorityGet+0xc0>
D:\CreateIC\01_CPIPC\riscv\RISCV_ENC_20220421\Firmware_true\app_prj\app_demo\Debug/../src/Bsp/Driver/hme_plic.c:149 (discriminator 2)
   115ac:	fde45703          	lhu	a4,-34(s0)
   115b0:	00200793          	li	a5,2
   115b4:	08f70663          	beq	a4,a5,11640 <IntrPriorityGet+0xc0>
D:\CreateIC\01_CPIPC\riscv\RISCV_ENC_20220421\Firmware_true\app_prj\app_demo\Debug/../src/Bsp/Driver/hme_plic.c:149 (discriminator 3)
   115b8:	fde45703          	lhu	a4,-34(s0)
   115bc:	00300793          	li	a5,3
   115c0:	08f70063          	beq	a4,a5,11640 <IntrPriorityGet+0xc0>
D:\CreateIC\01_CPIPC\riscv\RISCV_ENC_20220421\Firmware_true\app_prj\app_demo\Debug/../src/Bsp/Driver/hme_plic.c:149 (discriminator 4)
   115c4:	fde45703          	lhu	a4,-34(s0)
   115c8:	00400793          	li	a5,4
   115cc:	06f70a63          	beq	a4,a5,11640 <IntrPriorityGet+0xc0>
D:\CreateIC\01_CPIPC\riscv\RISCV_ENC_20220421\Firmware_true\app_prj\app_demo\Debug/../src/Bsp/Driver/hme_plic.c:149 (discriminator 5)
   115d0:	fde45703          	lhu	a4,-34(s0)
   115d4:	00500793          	li	a5,5
   115d8:	06f70463          	beq	a4,a5,11640 <IntrPriorityGet+0xc0>
D:\CreateIC\01_CPIPC\riscv\RISCV_ENC_20220421\Firmware_true\app_prj\app_demo\Debug/../src/Bsp/Driver/hme_plic.c:149 (discriminator 6)
   115dc:	fde45703          	lhu	a4,-34(s0)
   115e0:	00600793          	li	a5,6
   115e4:	04f70e63          	beq	a4,a5,11640 <IntrPriorityGet+0xc0>
D:\CreateIC\01_CPIPC\riscv\RISCV_ENC_20220421\Firmware_true\app_prj\app_demo\Debug/../src/Bsp/Driver/hme_plic.c:149 (discriminator 7)
   115e8:	fde45703          	lhu	a4,-34(s0)
   115ec:	00700793          	li	a5,7
   115f0:	04f70863          	beq	a4,a5,11640 <IntrPriorityGet+0xc0>
D:\CreateIC\01_CPIPC\riscv\RISCV_ENC_20220421\Firmware_true\app_prj\app_demo\Debug/../src/Bsp/Driver/hme_plic.c:149 (discriminator 8)
   115f4:	fde45703          	lhu	a4,-34(s0)
   115f8:	00800793          	li	a5,8
   115fc:	04f70263          	beq	a4,a5,11640 <IntrPriorityGet+0xc0>
D:\CreateIC\01_CPIPC\riscv\RISCV_ENC_20220421\Firmware_true\app_prj\app_demo\Debug/../src/Bsp/Driver/hme_plic.c:149 (discriminator 9)
   11600:	fde45703          	lhu	a4,-34(s0)
   11604:	00900793          	li	a5,9
   11608:	02f70c63          	beq	a4,a5,11640 <IntrPriorityGet+0xc0>
D:\CreateIC\01_CPIPC\riscv\RISCV_ENC_20220421\Firmware_true\app_prj\app_demo\Debug/../src/Bsp/Driver/hme_plic.c:149 (discriminator 10)
   1160c:	fde45703          	lhu	a4,-34(s0)
   11610:	00a00793          	li	a5,10
   11614:	02f70663          	beq	a4,a5,11640 <IntrPriorityGet+0xc0>
D:\CreateIC\01_CPIPC\riscv\RISCV_ENC_20220421\Firmware_true\app_prj\app_demo\Debug/../src/Bsp/Driver/hme_plic.c:149 (discriminator 11)
   11618:	fde45703          	lhu	a4,-34(s0)
   1161c:	00b00793          	li	a5,11
   11620:	02f70063          	beq	a4,a5,11640 <IntrPriorityGet+0xc0>
D:\CreateIC\01_CPIPC\riscv\RISCV_ENC_20220421\Firmware_true\app_prj\app_demo\Debug/../src/Bsp/Driver/hme_plic.c:149 (discriminator 12)
   11624:	fde45703          	lhu	a4,-34(s0)
   11628:	00c00793          	li	a5,12
   1162c:	00f70a63          	beq	a4,a5,11640 <IntrPriorityGet+0xc0>
D:\CreateIC\01_CPIPC\riscv\RISCV_ENC_20220421\Firmware_true\app_prj\app_demo\Debug/../src/Bsp/Driver/hme_plic.c:149 (discriminator 13)
   11630:	09500593          	li	a1,149
   11634:	000157b7          	lui	a5,0x15
   11638:	12078513          	addi	a0,a5,288 # 15120 <__init_array_end+0x5c>
   1163c:	59d010ef          	jal	ra,133d8 <assert_failed>
D:\CreateIC\01_CPIPC\riscv\RISCV_ENC_20220421\Firmware_true\app_prj\app_demo\Debug/../src/Bsp/Driver/hme_plic.c:151

	uint32_t ulPriority = EN_PRIORITY_MAX;
   11640:	00400793          	li	a5,4
   11644:	fef42623          	sw	a5,-20(s0)
D:\CreateIC\01_CPIPC\riscv\RISCV_ENC_20220421\Firmware_true\app_prj\app_demo\Debug/../src/Bsp/Driver/hme_plic.c:152
	uint32_t ulPriorityOffset = 0;
   11648:	fe042423          	sw	zero,-24(s0)
D:\CreateIC\01_CPIPC\riscv\RISCV_ENC_20220421\Firmware_true\app_prj\app_demo\Debug/../src/Bsp/Driver/hme_plic.c:154

	ulPriorityOffset = DevPriorityOffsetTableGet(usDevId);
   1164c:	fde45783          	lhu	a5,-34(s0)
   11650:	00078513          	mv	a0,a5
   11654:	c0dff0ef          	jal	ra,11260 <DevPriorityOffsetTableGet>
   11658:	fea42423          	sw	a0,-24(s0)
D:\CreateIC\01_CPIPC\riscv\RISCV_ENC_20220421\Firmware_true\app_prj\app_demo\Debug/../src/Bsp/Driver/hme_plic.c:155
	ulPriority = ReadReg32(PLIC_BASE_ADDR + ulPriorityOffset);
   1165c:	fe842703          	lw	a4,-24(s0)
   11660:	f8c007b7          	lui	a5,0xf8c00
   11664:	00f707b3          	add	a5,a4,a5
   11668:	0007a783          	lw	a5,0(a5) # f8c00000 <__freertos_irq_stack_top+0xf8bc1980>
   1166c:	fef42623          	sw	a5,-20(s0)
D:\CreateIC\01_CPIPC\riscv\RISCV_ENC_20220421\Firmware_true\app_prj\app_demo\Debug/../src/Bsp/Driver/hme_plic.c:157

	return ulPriority;
   11670:	fec42783          	lw	a5,-20(s0)
D:\CreateIC\01_CPIPC\riscv\RISCV_ENC_20220421\Firmware_true\app_prj\app_demo\Debug/../src/Bsp/Driver/hme_plic.c:158
}
   11674:	00078513          	mv	a0,a5
   11678:	02c12083          	lw	ra,44(sp)
   1167c:	02812403          	lw	s0,40(sp)
   11680:	03010113          	addi	sp,sp,48
   11684:	00008067          	ret

00011688 <PlicEnableSet>:
PlicEnableSet():
D:\CreateIC\01_CPIPC\riscv\RISCV_ENC_20220421\Firmware_true\app_prj\app_demo\Debug/../src/Bsp/Driver/hme_plic.c:184
 * @brief  设备PLIC的中断使能配置
 * @param  ulEnable：中断使能值
 * @retval 无
 *****************************************************************/
void PlicEnableSet(uint32_t ulEnable)
{
   11688:	fd010113          	addi	sp,sp,-48
   1168c:	02112623          	sw	ra,44(sp)
   11690:	02812423          	sw	s0,40(sp)
   11694:	03010413          	addi	s0,sp,48
   11698:	fca42e23          	sw	a0,-36(s0)
D:\CreateIC\01_CPIPC\riscv\RISCV_ENC_20220421\Firmware_true\app_prj\app_demo\Debug/../src/Bsp/Driver/hme_plic.c:185
	uint32_t ulTemRmableVal = 0;
   1169c:	fe042623          	sw	zero,-20(s0)
D:\CreateIC\01_CPIPC\riscv\RISCV_ENC_20220421\Firmware_true\app_prj\app_demo\Debug/../src/Bsp/Driver/hme_plic.c:186
	ulTemRmableVal = PlicEnableGet();
   116a0:	038000ef          	jal	ra,116d8 <PlicEnableGet>
   116a4:	fea42623          	sw	a0,-20(s0)
D:\CreateIC\01_CPIPC\riscv\RISCV_ENC_20220421\Firmware_true\app_prj\app_demo\Debug/../src/Bsp/Driver/hme_plic.c:187
	ulTemRmableVal = ulTemRmableVal | ulEnable;
   116a8:	fec42703          	lw	a4,-20(s0)
   116ac:	fdc42783          	lw	a5,-36(s0)
   116b0:	00f767b3          	or	a5,a4,a5
   116b4:	fef42623          	sw	a5,-20(s0)
D:\CreateIC\01_CPIPC\riscv\RISCV_ENC_20220421\Firmware_true\app_prj\app_demo\Debug/../src/Bsp/Driver/hme_plic.c:188
	WriteReg32(PLIC_BASE_ADDR + DEF_PLIC_INT_IE_OFFSET, ulTemRmableVal);
   116b8:	f8c027b7          	lui	a5,0xf8c02
   116bc:	fec42703          	lw	a4,-20(s0)
   116c0:	00e7a023          	sw	a4,0(a5) # f8c02000 <__freertos_irq_stack_top+0xf8bc3980>
D:\CreateIC\01_CPIPC\riscv\RISCV_ENC_20220421\Firmware_true\app_prj\app_demo\Debug/../src/Bsp/Driver/hme_plic.c:189
}
   116c4:	00000013          	nop
   116c8:	02c12083          	lw	ra,44(sp)
   116cc:	02812403          	lw	s0,40(sp)
   116d0:	03010113          	addi	sp,sp,48
   116d4:	00008067          	ret

000116d8 <PlicEnableGet>:
PlicEnableGet():
D:\CreateIC\01_CPIPC\riscv\RISCV_ENC_20220421\Firmware_true\app_prj\app_demo\Debug/../src/Bsp/Driver/hme_plic.c:197
 * @brief  设备PLIC的中断使能值获取
 * @param  无
 * @retval uint32_t：返回中断使能控制参数
 *****************************************************************/
uint32_t PlicEnableGet(void)
{
   116d8:	ff010113          	addi	sp,sp,-16
   116dc:	00812623          	sw	s0,12(sp)
   116e0:	01010413          	addi	s0,sp,16
D:\CreateIC\01_CPIPC\riscv\RISCV_ENC_20220421\Firmware_true\app_prj\app_demo\Debug/../src/Bsp/Driver/hme_plic.c:198
	return ReadReg32(PLIC_BASE_ADDR + DEF_PLIC_INT_IE_OFFSET);
   116e4:	f8c027b7          	lui	a5,0xf8c02
   116e8:	0007a783          	lw	a5,0(a5) # f8c02000 <__freertos_irq_stack_top+0xf8bc3980>
D:\CreateIC\01_CPIPC\riscv\RISCV_ENC_20220421\Firmware_true\app_prj\app_demo\Debug/../src/Bsp/Driver/hme_plic.c:199
}
   116ec:	00078513          	mv	a0,a5
   116f0:	00c12403          	lw	s0,12(sp)
   116f4:	01010113          	addi	sp,sp,16
   116f8:	00008067          	ret

000116fc <PlicThresholdSet>:
PlicThresholdSet():
D:\CreateIC\01_CPIPC\riscv\RISCV_ENC_20220421\Firmware_true\app_prj\app_demo\Debug/../src/Bsp/Driver/hme_plic.c:207
 * @brief  PLIC的中断阈值设置
 * @param  ucPlicThreshold：中断阈值参数
 * @retval 无
 *****************************************************************/
void PlicThresholdSet(uint8_t ucPlicThreshold)
{
   116fc:	fe010113          	addi	sp,sp,-32
   11700:	00112e23          	sw	ra,28(sp)
   11704:	00812c23          	sw	s0,24(sp)
   11708:	02010413          	addi	s0,sp,32
   1170c:	00050793          	mv	a5,a0
   11710:	fef407a3          	sb	a5,-17(s0)
D:\CreateIC\01_CPIPC\riscv\RISCV_ENC_20220421\Firmware_true\app_prj\app_demo\Debug/../src/Bsp/Driver/hme_plic.c:208
	assert_param(IS_PLIC_PRIORITY(ucPlicThreshold));
   11714:	fef44783          	lbu	a5,-17(s0)
   11718:	02078c63          	beqz	a5,11750 <PlicThresholdSet+0x54>
D:\CreateIC\01_CPIPC\riscv\RISCV_ENC_20220421\Firmware_true\app_prj\app_demo\Debug/../src/Bsp/Driver/hme_plic.c:208 (discriminator 1)
   1171c:	fef44703          	lbu	a4,-17(s0)
   11720:	00100793          	li	a5,1
   11724:	02f70663          	beq	a4,a5,11750 <PlicThresholdSet+0x54>
D:\CreateIC\01_CPIPC\riscv\RISCV_ENC_20220421\Firmware_true\app_prj\app_demo\Debug/../src/Bsp/Driver/hme_plic.c:208 (discriminator 2)
   11728:	fef44703          	lbu	a4,-17(s0)
   1172c:	00200793          	li	a5,2
   11730:	02f70063          	beq	a4,a5,11750 <PlicThresholdSet+0x54>
D:\CreateIC\01_CPIPC\riscv\RISCV_ENC_20220421\Firmware_true\app_prj\app_demo\Debug/../src/Bsp/Driver/hme_plic.c:208 (discriminator 3)
   11734:	fef44703          	lbu	a4,-17(s0)
   11738:	00300793          	li	a5,3
   1173c:	00f70a63          	beq	a4,a5,11750 <PlicThresholdSet+0x54>
D:\CreateIC\01_CPIPC\riscv\RISCV_ENC_20220421\Firmware_true\app_prj\app_demo\Debug/../src/Bsp/Driver/hme_plic.c:208 (discriminator 4)
   11740:	0d000593          	li	a1,208
   11744:	000157b7          	lui	a5,0x15
   11748:	12078513          	addi	a0,a5,288 # 15120 <__init_array_end+0x5c>
   1174c:	48d010ef          	jal	ra,133d8 <assert_failed>
D:\CreateIC\01_CPIPC\riscv\RISCV_ENC_20220421\Firmware_true\app_prj\app_demo\Debug/../src/Bsp/Driver/hme_plic.c:210

	WriteReg32(PLIC_BASE_ADDR + DEF_PLIC_INT_THRESHOLD_OFFSET, ucPlicThreshold);
   11750:	f8e007b7          	lui	a5,0xf8e00
   11754:	fef44703          	lbu	a4,-17(s0)
   11758:	00e7a023          	sw	a4,0(a5) # f8e00000 <__freertos_irq_stack_top+0xf8dc1980>
D:\CreateIC\01_CPIPC\riscv\RISCV_ENC_20220421\Firmware_true\app_prj\app_demo\Debug/../src/Bsp/Driver/hme_plic.c:211
}
   1175c:	00000013          	nop
   11760:	01c12083          	lw	ra,28(sp)
   11764:	01812403          	lw	s0,24(sp)
   11768:	02010113          	addi	sp,sp,32
   1176c:	00008067          	ret

00011770 <PlicThresholdGet>:
PlicThresholdGet():
D:\CreateIC\01_CPIPC\riscv\RISCV_ENC_20220421\Firmware_true\app_prj\app_demo\Debug/../src/Bsp/Driver/hme_plic.c:219
 * @brief  PLIC的中断阈值获取
 * @param  无
 * @retval uint8_t：返回中断阈值
 *****************************************************************/
uint8_t PlicThresholdGet(void)
{
   11770:	ff010113          	addi	sp,sp,-16
   11774:	00812623          	sw	s0,12(sp)
   11778:	01010413          	addi	s0,sp,16
D:\CreateIC\01_CPIPC\riscv\RISCV_ENC_20220421\Firmware_true\app_prj\app_demo\Debug/../src/Bsp/Driver/hme_plic.c:220
    return ReadReg32(PLIC_BASE_ADDR + DEF_PLIC_INT_THRESHOLD_OFFSET);
   1177c:	f8e007b7          	lui	a5,0xf8e00
   11780:	0007a783          	lw	a5,0(a5) # f8e00000 <__freertos_irq_stack_top+0xf8dc1980>
   11784:	0ff7f793          	andi	a5,a5,255
D:\CreateIC\01_CPIPC\riscv\RISCV_ENC_20220421\Firmware_true\app_prj\app_demo\Debug/../src/Bsp/Driver/hme_plic.c:221
}
   11788:	00078513          	mv	a0,a5
   1178c:	00c12403          	lw	s0,12(sp)
   11790:	01010113          	addi	sp,sp,16
   11794:	00008067          	ret

00011798 <PlicIntrHandleRegister>:
PlicIntrHandleRegister():
D:\CreateIC\01_CPIPC\riscv\RISCV_ENC_20220421\Firmware_true\app_prj\app_demo\Debug/../src/Bsp/Driver/hme_plic.c:229
 * @brief  PLIC的中断注册函数
 * @param  pstRegParam：中断注册参数指针， usDevId：设备ID
 * @retval 无
 *****************************************************************/
void PlicIntrHandleRegister(PST_PLIC_REG_PARAM pstRegParam, uint16_t usDevId)
{
   11798:	fe010113          	addi	sp,sp,-32
   1179c:	00112e23          	sw	ra,28(sp)
   117a0:	00812c23          	sw	s0,24(sp)
   117a4:	02010413          	addi	s0,sp,32
   117a8:	fea42623          	sw	a0,-20(s0)
   117ac:	00058793          	mv	a5,a1
   117b0:	fef41523          	sh	a5,-22(s0)
D:\CreateIC\01_CPIPC\riscv\RISCV_ENC_20220421\Firmware_true\app_prj\app_demo\Debug/../src/Bsp/Driver/hme_plic.c:230
	assert_param(IS_DEV_ID(usDevId));
   117b4:	fea45783          	lhu	a5,-22(s0)
   117b8:	0a078263          	beqz	a5,1185c <PlicIntrHandleRegister+0xc4>
D:\CreateIC\01_CPIPC\riscv\RISCV_ENC_20220421\Firmware_true\app_prj\app_demo\Debug/../src/Bsp/Driver/hme_plic.c:230 (discriminator 1)
   117bc:	fea45703          	lhu	a4,-22(s0)
   117c0:	00100793          	li	a5,1
   117c4:	08f70c63          	beq	a4,a5,1185c <PlicIntrHandleRegister+0xc4>
D:\CreateIC\01_CPIPC\riscv\RISCV_ENC_20220421\Firmware_true\app_prj\app_demo\Debug/../src/Bsp/Driver/hme_plic.c:230 (discriminator 2)
   117c8:	fea45703          	lhu	a4,-22(s0)
   117cc:	00200793          	li	a5,2
   117d0:	08f70663          	beq	a4,a5,1185c <PlicIntrHandleRegister+0xc4>
D:\CreateIC\01_CPIPC\riscv\RISCV_ENC_20220421\Firmware_true\app_prj\app_demo\Debug/../src/Bsp/Driver/hme_plic.c:230 (discriminator 3)
   117d4:	fea45703          	lhu	a4,-22(s0)
   117d8:	00300793          	li	a5,3
   117dc:	08f70063          	beq	a4,a5,1185c <PlicIntrHandleRegister+0xc4>
D:\CreateIC\01_CPIPC\riscv\RISCV_ENC_20220421\Firmware_true\app_prj\app_demo\Debug/../src/Bsp/Driver/hme_plic.c:230 (discriminator 4)
   117e0:	fea45703          	lhu	a4,-22(s0)
   117e4:	00400793          	li	a5,4
   117e8:	06f70a63          	beq	a4,a5,1185c <PlicIntrHandleRegister+0xc4>
D:\CreateIC\01_CPIPC\riscv\RISCV_ENC_20220421\Firmware_true\app_prj\app_demo\Debug/../src/Bsp/Driver/hme_plic.c:230 (discriminator 5)
   117ec:	fea45703          	lhu	a4,-22(s0)
   117f0:	00500793          	li	a5,5
   117f4:	06f70463          	beq	a4,a5,1185c <PlicIntrHandleRegister+0xc4>
D:\CreateIC\01_CPIPC\riscv\RISCV_ENC_20220421\Firmware_true\app_prj\app_demo\Debug/../src/Bsp/Driver/hme_plic.c:230 (discriminator 6)
   117f8:	fea45703          	lhu	a4,-22(s0)
   117fc:	00600793          	li	a5,6
   11800:	04f70e63          	beq	a4,a5,1185c <PlicIntrHandleRegister+0xc4>
D:\CreateIC\01_CPIPC\riscv\RISCV_ENC_20220421\Firmware_true\app_prj\app_demo\Debug/../src/Bsp/Driver/hme_plic.c:230 (discriminator 7)
   11804:	fea45703          	lhu	a4,-22(s0)
   11808:	00700793          	li	a5,7
   1180c:	04f70863          	beq	a4,a5,1185c <PlicIntrHandleRegister+0xc4>
D:\CreateIC\01_CPIPC\riscv\RISCV_ENC_20220421\Firmware_true\app_prj\app_demo\Debug/../src/Bsp/Driver/hme_plic.c:230 (discriminator 8)
   11810:	fea45703          	lhu	a4,-22(s0)
   11814:	00800793          	li	a5,8
   11818:	04f70263          	beq	a4,a5,1185c <PlicIntrHandleRegister+0xc4>
D:\CreateIC\01_CPIPC\riscv\RISCV_ENC_20220421\Firmware_true\app_prj\app_demo\Debug/../src/Bsp/Driver/hme_plic.c:230 (discriminator 9)
   1181c:	fea45703          	lhu	a4,-22(s0)
   11820:	00900793          	li	a5,9
   11824:	02f70c63          	beq	a4,a5,1185c <PlicIntrHandleRegister+0xc4>
D:\CreateIC\01_CPIPC\riscv\RISCV_ENC_20220421\Firmware_true\app_prj\app_demo\Debug/../src/Bsp/Driver/hme_plic.c:230 (discriminator 10)
   11828:	fea45703          	lhu	a4,-22(s0)
   1182c:	00a00793          	li	a5,10
   11830:	02f70663          	beq	a4,a5,1185c <PlicIntrHandleRegister+0xc4>
D:\CreateIC\01_CPIPC\riscv\RISCV_ENC_20220421\Firmware_true\app_prj\app_demo\Debug/../src/Bsp/Driver/hme_plic.c:230 (discriminator 11)
   11834:	fea45703          	lhu	a4,-22(s0)
   11838:	00b00793          	li	a5,11
   1183c:	02f70063          	beq	a4,a5,1185c <PlicIntrHandleRegister+0xc4>
D:\CreateIC\01_CPIPC\riscv\RISCV_ENC_20220421\Firmware_true\app_prj\app_demo\Debug/../src/Bsp/Driver/hme_plic.c:230 (discriminator 12)
   11840:	fea45703          	lhu	a4,-22(s0)
   11844:	00c00793          	li	a5,12
   11848:	00f70a63          	beq	a4,a5,1185c <PlicIntrHandleRegister+0xc4>
D:\CreateIC\01_CPIPC\riscv\RISCV_ENC_20220421\Firmware_true\app_prj\app_demo\Debug/../src/Bsp/Driver/hme_plic.c:230 (discriminator 13)
   1184c:	0e600593          	li	a1,230
   11850:	000157b7          	lui	a5,0x15
   11854:	12078513          	addi	a0,a5,288 # 15120 <__init_array_end+0x5c>
   11858:	381010ef          	jal	ra,133d8 <assert_failed>
D:\CreateIC\01_CPIPC\riscv\RISCV_ENC_20220421\Firmware_true\app_prj\app_demo\Debug/../src/Bsp/Driver/hme_plic.c:231
	assert_param(NULL != pstRegParam);
   1185c:	fec42783          	lw	a5,-20(s0)
   11860:	00079a63          	bnez	a5,11874 <PlicIntrHandleRegister+0xdc>
D:\CreateIC\01_CPIPC\riscv\RISCV_ENC_20220421\Firmware_true\app_prj\app_demo\Debug/../src/Bsp/Driver/hme_plic.c:231 (discriminator 1)
   11864:	0e700593          	li	a1,231
   11868:	000157b7          	lui	a5,0x15
   1186c:	12078513          	addi	a0,a5,288 # 15120 <__init_array_end+0x5c>
   11870:	369010ef          	jal	ra,133d8 <assert_failed>
D:\CreateIC\01_CPIPC\riscv\RISCV_ENC_20220421\Firmware_true\app_prj\app_demo\Debug/../src/Bsp/Driver/hme_plic.c:233

	astPlicReg[usDevId].usIntrId = pstRegParam->usIntrId;
   11874:	fea45703          	lhu	a4,-22(s0)
   11878:	fec42783          	lw	a5,-20(s0)
   1187c:	0007d683          	lhu	a3,0(a5)
   11880:	000157b7          	lui	a5,0x15
   11884:	58078613          	addi	a2,a5,1408 # 15580 <astPlicReg>
   11888:	00070793          	mv	a5,a4
   1188c:	00179793          	slli	a5,a5,0x1
   11890:	00e787b3          	add	a5,a5,a4
   11894:	00279793          	slli	a5,a5,0x2
   11898:	00f607b3          	add	a5,a2,a5
   1189c:	00d79023          	sh	a3,0(a5)
D:\CreateIC\01_CPIPC\riscv\RISCV_ENC_20220421\Firmware_true\app_prj\app_demo\Debug/../src/Bsp/Driver/hme_plic.c:234
	astPlicReg[usDevId].IntrHander = pstRegParam->IntrHander;
   118a0:	fea45703          	lhu	a4,-22(s0)
   118a4:	fec42783          	lw	a5,-20(s0)
   118a8:	0047a683          	lw	a3,4(a5)
   118ac:	000157b7          	lui	a5,0x15
   118b0:	58078613          	addi	a2,a5,1408 # 15580 <astPlicReg>
   118b4:	00070793          	mv	a5,a4
   118b8:	00179793          	slli	a5,a5,0x1
   118bc:	00e787b3          	add	a5,a5,a4
   118c0:	00279793          	slli	a5,a5,0x2
   118c4:	00f607b3          	add	a5,a2,a5
   118c8:	00d7a223          	sw	a3,4(a5)
D:\CreateIC\01_CPIPC\riscv\RISCV_ENC_20220421\Firmware_true\app_prj\app_demo\Debug/../src/Bsp/Driver/hme_plic.c:235
	astPlicReg[usDevId].ptrBackCall = pstRegParam->ptrBackCall;
   118cc:	fea45703          	lhu	a4,-22(s0)
   118d0:	fec42783          	lw	a5,-20(s0)
   118d4:	0087a683          	lw	a3,8(a5)
   118d8:	000157b7          	lui	a5,0x15
   118dc:	58078613          	addi	a2,a5,1408 # 15580 <astPlicReg>
   118e0:	00070793          	mv	a5,a4
   118e4:	00179793          	slli	a5,a5,0x1
   118e8:	00e787b3          	add	a5,a5,a4
   118ec:	00279793          	slli	a5,a5,0x2
   118f0:	00f607b3          	add	a5,a2,a5
   118f4:	00d7a423          	sw	a3,8(a5)
D:\CreateIC\01_CPIPC\riscv\RISCV_ENC_20220421\Firmware_true\app_prj\app_demo\Debug/../src/Bsp/Driver/hme_plic.c:236
}
   118f8:	00000013          	nop
   118fc:	01c12083          	lw	ra,28(sp)
   11900:	01812403          	lw	s0,24(sp)
   11904:	02010113          	addi	sp,sp,32
   11908:	00008067          	ret

0001190c <ExternalInterruptExcute>:
ExternalInterruptExcute():
D:\CreateIC\01_CPIPC\riscv\RISCV_ENC_20220421\Firmware_true\app_prj\app_demo\Debug/../src/Bsp/Driver/hme_plic.c:244
 * @brief  PLIC中断执行接口
 * @param  无
 * @retval 无
 *****************************************************************/
void ExternalInterruptExcute(void)
{
   1190c:	fd010113          	addi	sp,sp,-48
   11910:	02112623          	sw	ra,44(sp)
   11914:	02812423          	sw	s0,40(sp)
   11918:	03010413          	addi	s0,sp,48
D:\CreateIC\01_CPIPC\riscv\RISCV_ENC_20220421\Firmware_true\app_prj\app_demo\Debug/../src/Bsp/Driver/hme_plic.c:245
	uint16_t usIntrExcFlage = 0;
   1191c:	fe041123          	sh	zero,-30(s0)
D:\CreateIC\01_CPIPC\riscv\RISCV_ENC_20220421\Firmware_true\app_prj\app_demo\Debug/../src/Bsp/Driver/hme_plic.c:246
	uint16_t usIntrId = 0;
   11920:	fe041023          	sh	zero,-32(s0)
D:\CreateIC\01_CPIPC\riscv\RISCV_ENC_20220421\Firmware_true\app_prj\app_demo\Debug/../src/Bsp/Driver/hme_plic.c:247
	uint16_t usRegTableIntrId = 0;
   11924:	fe041723          	sh	zero,-18(s0)
D:\CreateIC\01_CPIPC\riscv\RISCV_ENC_20220421\Firmware_true\app_prj\app_demo\Debug/../src/Bsp/Driver/hme_plic.c:248
	uint16_t usIntrTableId = 0;
   11928:	fc041f23          	sh	zero,-34(s0)
D:\CreateIC\01_CPIPC\riscv\RISCV_ENC_20220421\Firmware_true\app_prj\app_demo\Debug/../src/Bsp/Driver/hme_plic.c:249
	uint8_t ulPriority = 0;
   1192c:	fc040ea3          	sb	zero,-35(s0)
D:\CreateIC\01_CPIPC\riscv\RISCV_ENC_20220421\Firmware_true\app_prj\app_demo\Debug/../src/Bsp/Driver/hme_plic.c:250
	uint8_t ulThresholdVal = 0;
   11930:	fc040e23          	sb	zero,-36(s0)
D:\CreateIC\01_CPIPC\riscv\RISCV_ENC_20220421\Firmware_true\app_prj\app_demo\Debug/../src/Bsp/Driver/hme_plic.c:251
	EN_DEV_ID enDevTableId = EN_DEV_ID_MAX;
   11934:	00d00793          	li	a5,13
   11938:	fef42423          	sw	a5,-24(s0)
D:\CreateIC\01_CPIPC\riscv\RISCV_ENC_20220421\Firmware_true\app_prj\app_demo\Debug/../src/Bsp/Driver/hme_plic.c:252
	EN_DEV_ID enIdCnt = EN_DEV_ID_0;
   1193c:	fe042223          	sw	zero,-28(s0)
D:\CreateIC\01_CPIPC\riscv\RISCV_ENC_20220421\Firmware_true\app_prj\app_demo\Debug/../src/Bsp/Driver/hme_plic.c:255


	uint32_t ulMstatus = csr_read(mstatus);
   11940:	300027f3          	csrr	a5,mstatus
   11944:	00078093          	mv	ra,a5
   11948:	00008793          	mv	a5,ra
   1194c:	fcf42c23          	sw	a5,-40(s0)
D:\CreateIC\01_CPIPC\riscv\RISCV_ENC_20220421\Firmware_true\app_prj\app_demo\Debug/../src/Bsp/Driver/hme_plic.c:257

	ulThresholdVal = PlicThresholdGet();
   11950:	e21ff0ef          	jal	ra,11770 <PlicThresholdGet>
   11954:	00050793          	mv	a5,a0
   11958:	fcf40e23          	sb	a5,-36(s0)
D:\CreateIC\01_CPIPC\riscv\RISCV_ENC_20220421\Firmware_true\app_prj\app_demo\Debug/../src/Bsp/Driver/hme_plic.c:258
	usIntrId = PlicClaimGet();
   1195c:	fb0ff0ef          	jal	ra,1110c <PlicClaimGet>
   11960:	00050793          	mv	a5,a0
   11964:	fef41023          	sh	a5,-32(s0)
D:\CreateIC\01_CPIPC\riscv\RISCV_ENC_20220421\Firmware_true\app_prj\app_demo\Debug/../src/Bsp/Driver/hme_plic.c:259
	for (enIdCnt = EN_DEV_ID_0; enIdCnt < EN_DEV_ID_MAX;  enIdCnt = enIdCnt + 1)
   11968:	fe042223          	sw	zero,-28(s0)
   1196c:	0580006f          	j	119c4 <ExternalInterruptExcute+0xb8>
D:\CreateIC\01_CPIPC\riscv\RISCV_ENC_20220421\Firmware_true\app_prj\app_demo\Debug/../src/Bsp/Driver/hme_plic.c:261
	{
		usIntrTableId = astDevParam[enIdCnt].usIntrId;
   11970:	000157b7          	lui	a5,0x15
   11974:	42878713          	addi	a4,a5,1064 # 15428 <astDevParam>
   11978:	fe442783          	lw	a5,-28(s0)
   1197c:	00479793          	slli	a5,a5,0x4
   11980:	00f707b3          	add	a5,a4,a5
   11984:	0027d783          	lhu	a5,2(a5)
   11988:	fcf41f23          	sh	a5,-34(s0)
D:\CreateIC\01_CPIPC\riscv\RISCV_ENC_20220421\Firmware_true\app_prj\app_demo\Debug/../src/Bsp/Driver/hme_plic.c:262
		if(usIntrId == usIntrTableId)
   1198c:	fe045703          	lhu	a4,-32(s0)
   11990:	fde45783          	lhu	a5,-34(s0)
   11994:	02f71263          	bne	a4,a5,119b8 <ExternalInterruptExcute+0xac>
D:\CreateIC\01_CPIPC\riscv\RISCV_ENC_20220421\Firmware_true\app_prj\app_demo\Debug/../src/Bsp/Driver/hme_plic.c:264
		{
			enDevTableId = astDevParam[enIdCnt].usDevId;
   11998:	000157b7          	lui	a5,0x15
   1199c:	42878713          	addi	a4,a5,1064 # 15428 <astDevParam>
   119a0:	fe442783          	lw	a5,-28(s0)
   119a4:	00479793          	slli	a5,a5,0x4
   119a8:	00f707b3          	add	a5,a4,a5
   119ac:	0007d783          	lhu	a5,0(a5)
   119b0:	fef42423          	sw	a5,-24(s0)
D:\CreateIC\01_CPIPC\riscv\RISCV_ENC_20220421\Firmware_true\app_prj\app_demo\Debug/../src/Bsp/Driver/hme_plic.c:265
			break;
   119b4:	01c0006f          	j	119d0 <ExternalInterruptExcute+0xc4>
D:\CreateIC\01_CPIPC\riscv\RISCV_ENC_20220421\Firmware_true\app_prj\app_demo\Debug/../src/Bsp/Driver/hme_plic.c:259 (discriminator 2)
	for (enIdCnt = EN_DEV_ID_0; enIdCnt < EN_DEV_ID_MAX;  enIdCnt = enIdCnt + 1)
   119b8:	fe442783          	lw	a5,-28(s0)
   119bc:	00178793          	addi	a5,a5,1
   119c0:	fef42223          	sw	a5,-28(s0)
D:\CreateIC\01_CPIPC\riscv\RISCV_ENC_20220421\Firmware_true\app_prj\app_demo\Debug/../src/Bsp/Driver/hme_plic.c:259 (discriminator 1)
   119c4:	fe442703          	lw	a4,-28(s0)
   119c8:	00c00793          	li	a5,12
   119cc:	fae7f2e3          	bgeu	a5,a4,11970 <ExternalInterruptExcute+0x64>
D:\CreateIC\01_CPIPC\riscv\RISCV_ENC_20220421\Firmware_true\app_prj\app_demo\Debug/../src/Bsp/Driver/hme_plic.c:269
		}
	}

    if (enDevTableId < EN_DEV_ID_MAX)
   119d0:	fe842703          	lw	a4,-24(s0)
   119d4:	00c00793          	li	a5,12
   119d8:	06e7e663          	bltu	a5,a4,11a44 <ExternalInterruptExcute+0x138>
D:\CreateIC\01_CPIPC\riscv\RISCV_ENC_20220421\Firmware_true\app_prj\app_demo\Debug/../src/Bsp/Driver/hme_plic.c:271
    {
    	ulPriority =IntrPriorityGet(enDevTableId);
   119dc:	fe842783          	lw	a5,-24(s0)
   119e0:	01079793          	slli	a5,a5,0x10
   119e4:	0107d793          	srli	a5,a5,0x10
   119e8:	00078513          	mv	a0,a5
   119ec:	b95ff0ef          	jal	ra,11580 <IntrPriorityGet>
   119f0:	00050793          	mv	a5,a0
   119f4:	fcf40ea3          	sb	a5,-35(s0)
D:\CreateIC\01_CPIPC\riscv\RISCV_ENC_20220421\Firmware_true\app_prj\app_demo\Debug/../src/Bsp/Driver/hme_plic.c:272
    	PlicThresholdSet(ulPriority);
   119f8:	fdd44783          	lbu	a5,-35(s0)
   119fc:	00078513          	mv	a0,a5
   11a00:	cfdff0ef          	jal	ra,116fc <PlicThresholdSet>
D:\CreateIC\01_CPIPC\riscv\RISCV_ENC_20220421\Firmware_true\app_prj\app_demo\Debug/../src/Bsp/Driver/hme_plic.c:273
    	csr_write(mstatus, ulMstatus | MSTATUS_MIE);
   11a04:	fd842783          	lw	a5,-40(s0)
   11a08:	0087e793          	ori	a5,a5,8
   11a0c:	fcf42a23          	sw	a5,-44(s0)
   11a10:	fd442783          	lw	a5,-44(s0)
   11a14:	30079073          	csrw	mstatus,a5
D:\CreateIC\01_CPIPC\riscv\RISCV_ENC_20220421\Firmware_true\app_prj\app_demo\Debug/../src/Bsp/Driver/hme_plic.c:274
    	usRegTableIntrId = astPlicReg[enDevTableId].usIntrId;
   11a18:	000157b7          	lui	a5,0x15
   11a1c:	58078693          	addi	a3,a5,1408 # 15580 <astPlicReg>
   11a20:	fe842703          	lw	a4,-24(s0)
   11a24:	00070793          	mv	a5,a4
   11a28:	00179793          	slli	a5,a5,0x1
   11a2c:	00e787b3          	add	a5,a5,a4
   11a30:	00279793          	slli	a5,a5,0x2
   11a34:	00f687b3          	add	a5,a3,a5
   11a38:	0007d783          	lhu	a5,0(a5)
   11a3c:	fef41723          	sh	a5,-18(s0)
   11a40:	0080006f          	j	11a48 <ExternalInterruptExcute+0x13c>
D:\CreateIC\01_CPIPC\riscv\RISCV_ENC_20220421\Firmware_true\app_prj\app_demo\Debug/../src/Bsp/Driver/hme_plic.c:278
    }
    else
    {
    	PlicErrExcute();
   11a44:	0bc000ef          	jal	ra,11b00 <PlicErrExcute>
D:\CreateIC\01_CPIPC\riscv\RISCV_ENC_20220421\Firmware_true\app_prj\app_demo\Debug/../src/Bsp/Driver/hme_plic.c:281
    }

    if ((usRegTableIntrId == usIntrId) && ( NULL != astPlicReg[enDevTableId].IntrHander))
   11a48:	fee45703          	lhu	a4,-18(s0)
   11a4c:	fe045783          	lhu	a5,-32(s0)
   11a50:	08f71c63          	bne	a4,a5,11ae8 <ExternalInterruptExcute+0x1dc>
D:\CreateIC\01_CPIPC\riscv\RISCV_ENC_20220421\Firmware_true\app_prj\app_demo\Debug/../src/Bsp/Driver/hme_plic.c:281 (discriminator 1)
   11a54:	000157b7          	lui	a5,0x15
   11a58:	58078693          	addi	a3,a5,1408 # 15580 <astPlicReg>
   11a5c:	fe842703          	lw	a4,-24(s0)
   11a60:	00070793          	mv	a5,a4
   11a64:	00179793          	slli	a5,a5,0x1
   11a68:	00e787b3          	add	a5,a5,a4
   11a6c:	00279793          	slli	a5,a5,0x2
   11a70:	00f687b3          	add	a5,a3,a5
   11a74:	0047a783          	lw	a5,4(a5)
   11a78:	06078863          	beqz	a5,11ae8 <ExternalInterruptExcute+0x1dc>
D:\CreateIC\01_CPIPC\riscv\RISCV_ENC_20220421\Firmware_true\app_prj\app_demo\Debug/../src/Bsp/Driver/hme_plic.c:283
    {
    	astPlicReg[enDevTableId].IntrHander(astPlicReg[enDevTableId].ptrBackCall);
   11a7c:	000157b7          	lui	a5,0x15
   11a80:	58078693          	addi	a3,a5,1408 # 15580 <astPlicReg>
   11a84:	fe842703          	lw	a4,-24(s0)
   11a88:	00070793          	mv	a5,a4
   11a8c:	00179793          	slli	a5,a5,0x1
   11a90:	00e787b3          	add	a5,a5,a4
   11a94:	00279793          	slli	a5,a5,0x2
   11a98:	00f687b3          	add	a5,a3,a5
   11a9c:	0047a603          	lw	a2,4(a5)
   11aa0:	000157b7          	lui	a5,0x15
   11aa4:	58078693          	addi	a3,a5,1408 # 15580 <astPlicReg>
   11aa8:	fe842703          	lw	a4,-24(s0)
   11aac:	00070793          	mv	a5,a4
   11ab0:	00179793          	slli	a5,a5,0x1
   11ab4:	00e787b3          	add	a5,a5,a4
   11ab8:	00279793          	slli	a5,a5,0x2
   11abc:	00f687b3          	add	a5,a3,a5
   11ac0:	0087a783          	lw	a5,8(a5)
   11ac4:	00078513          	mv	a0,a5
   11ac8:	000600e7          	jalr	a2
D:\CreateIC\01_CPIPC\riscv\RISCV_ENC_20220421\Firmware_true\app_prj\app_demo\Debug/../src/Bsp/Driver/hme_plic.c:284
    	PlicFinishNotice(usIntrId);
   11acc:	fe045783          	lhu	a5,-32(s0)
   11ad0:	00078513          	mv	a0,a5
   11ad4:	e6cff0ef          	jal	ra,11140 <PlicFinishNotice>
D:\CreateIC\01_CPIPC\riscv\RISCV_ENC_20220421\Firmware_true\app_prj\app_demo\Debug/../src/Bsp/Driver/hme_plic.c:285
    	PlicThresholdSet(ulThresholdVal);
   11ad8:	fdc44783          	lbu	a5,-36(s0)
   11adc:	00078513          	mv	a0,a5
   11ae0:	c1dff0ef          	jal	ra,116fc <PlicThresholdSet>
   11ae4:	0080006f          	j	11aec <ExternalInterruptExcute+0x1e0>
D:\CreateIC\01_CPIPC\riscv\RISCV_ENC_20220421\Firmware_true\app_prj\app_demo\Debug/../src/Bsp/Driver/hme_plic.c:289
    }
    else
    {
    	PlicErrExcute();
   11ae8:	018000ef          	jal	ra,11b00 <PlicErrExcute>
D:\CreateIC\01_CPIPC\riscv\RISCV_ENC_20220421\Firmware_true\app_prj\app_demo\Debug/../src/Bsp/Driver/hme_plic.c:291
    }
}
   11aec:	00000013          	nop
   11af0:	02c12083          	lw	ra,44(sp)
   11af4:	02812403          	lw	s0,40(sp)
   11af8:	03010113          	addi	sp,sp,48
   11afc:	00008067          	ret

00011b00 <PlicErrExcute>:
PlicErrExcute():
D:\CreateIC\01_CPIPC\riscv\RISCV_ENC_20220421\Firmware_true\app_prj\app_demo\Debug/../src/Bsp/Driver/hme_plic.c:295


void PlicErrExcute(void)
{
   11b00:	ff010113          	addi	sp,sp,-16
   11b04:	00112623          	sw	ra,12(sp)
   11b08:	00812423          	sw	s0,8(sp)
   11b0c:	01010413          	addi	s0,sp,16
D:\CreateIC\01_CPIPC\riscv\RISCV_ENC_20220421\Firmware_true\app_prj\app_demo\Debug/../src/Bsp/Driver/hme_plic.c:296
	printf("\n __PLIC Excute Err! \n");
   11b10:	000157b7          	lui	a5,0x15
   11b14:	14078513          	addi	a0,a5,320 # 15140 <__init_array_end+0x7c>
   11b18:	3d8020ef          	jal	ra,13ef0 <puts>
D:\CreateIC\01_CPIPC\riscv\RISCV_ENC_20220421\Firmware_true\app_prj\app_demo\Debug/../src/Bsp/Driver/hme_plic.c:297
}
   11b1c:	00000013          	nop
   11b20:	00c12083          	lw	ra,12(sp)
   11b24:	00812403          	lw	s0,8(sp)
   11b28:	01010113          	addi	sp,sp,16
   11b2c:	00008067          	ret

00011b30 <MachineTimerObjStructDeInit>:
MachineTimerObjStructDeInit():
D:\CreateIC\01_CPIPC\riscv\RISCV_ENC_20220421\Firmware_true\app_prj\app_demo\Debug/../src/Bsp/Driver/hme_timer.c:19
 * @brief  MachineTimer结构体默认初始化
 * @param  pstTimerObj：TImer对象
 * @retval 无
*****************************************************************/
void MachineTimerObjStructDeInit(PST_TIMER_ATTR pstTimerObj)
{
   11b30:	fe010113          	addi	sp,sp,-32
   11b34:	00112e23          	sw	ra,28(sp)
   11b38:	00812c23          	sw	s0,24(sp)
   11b3c:	02010413          	addi	s0,sp,32
   11b40:	fea42623          	sw	a0,-20(s0)
D:\CreateIC\01_CPIPC\riscv\RISCV_ENC_20220421\Firmware_true\app_prj\app_demo\Debug/../src/Bsp/Driver/hme_timer.c:20
	assert_param(NULL != pstTimerObj);
   11b44:	fec42783          	lw	a5,-20(s0)
   11b48:	00079a63          	bnez	a5,11b5c <MachineTimerObjStructDeInit+0x2c>
D:\CreateIC\01_CPIPC\riscv\RISCV_ENC_20220421\Firmware_true\app_prj\app_demo\Debug/../src/Bsp/Driver/hme_timer.c:20 (discriminator 1)
   11b4c:	01400593          	li	a1,20
   11b50:	000157b7          	lui	a5,0x15
   11b54:	15878513          	addi	a0,a5,344 # 15158 <__init_array_end+0x94>
   11b58:	081010ef          	jal	ra,133d8 <assert_failed>
D:\CreateIC\01_CPIPC\riscv\RISCV_ENC_20220421\Firmware_true\app_prj\app_demo\Debug/../src/Bsp/Driver/hme_timer.c:22

    pstTimerObj->usDevId = DEF_MACHINE_TIMER_ID;
   11b5c:	fec42783          	lw	a5,-20(s0)
   11b60:	00079023          	sh	zero,0(a5)
D:\CreateIC\01_CPIPC\riscv\RISCV_ENC_20220421\Firmware_true\app_prj\app_demo\Debug/../src/Bsp/Driver/hme_timer.c:23
    pstTimerObj->ulCurTimerL = 0;
   11b64:	fec42783          	lw	a5,-20(s0)
   11b68:	0007a423          	sw	zero,8(a5)
D:\CreateIC\01_CPIPC\riscv\RISCV_ENC_20220421\Firmware_true\app_prj\app_demo\Debug/../src/Bsp/Driver/hme_timer.c:24
    pstTimerObj->ulCurTimerH = 0;
   11b6c:	fec42783          	lw	a5,-20(s0)
   11b70:	0007a623          	sw	zero,12(a5)
D:\CreateIC\01_CPIPC\riscv\RISCV_ENC_20220421\Firmware_true\app_prj\app_demo\Debug/../src/Bsp/Driver/hme_timer.c:25
    pstTimerObj->stPlicCfgParam.ucIntrEnFlage = ENABLE;
   11b74:	fec42783          	lw	a5,-20(s0)
   11b78:	00100713          	li	a4,1
   11b7c:	00e78823          	sb	a4,16(a5)
D:\CreateIC\01_CPIPC\riscv\RISCV_ENC_20220421\Firmware_true\app_prj\app_demo\Debug/../src/Bsp/Driver/hme_timer.c:26
    pstTimerObj->stPlicCfgParam.ucPriority = EN_PRIORITY_1;
   11b80:	fec42783          	lw	a5,-20(s0)
   11b84:	00100713          	li	a4,1
   11b88:	00e788a3          	sb	a4,17(a5)
D:\CreateIC\01_CPIPC\riscv\RISCV_ENC_20220421\Firmware_true\app_prj\app_demo\Debug/../src/Bsp/Driver/hme_timer.c:27
    pstTimerObj->ulIntrPeriod = DEF_TIMER_PERIOD;
   11b8c:	fec42783          	lw	a5,-20(s0)
   11b90:	027bd737          	lui	a4,0x27bd
   11b94:	86a70713          	addi	a4,a4,-1942 # 27bc86a <__freertos_irq_stack_top+0x277e1ea>
   11b98:	00e7a223          	sw	a4,4(a5)
D:\CreateIC\01_CPIPC\riscv\RISCV_ENC_20220421\Firmware_true\app_prj\app_demo\Debug/../src/Bsp/Driver/hme_timer.c:28
    pstTimerObj->pstCtrller = DEV_MACH_TIMER;
   11b9c:	fec42783          	lw	a5,-20(s0)
   11ba0:	f8001737          	lui	a4,0xf8001
   11ba4:	00e7aa23          	sw	a4,20(a5)
D:\CreateIC\01_CPIPC\riscv\RISCV_ENC_20220421\Firmware_true\app_prj\app_demo\Debug/../src/Bsp/Driver/hme_timer.c:29
}
   11ba8:	00000013          	nop
   11bac:	01c12083          	lw	ra,28(sp)
   11bb0:	01812403          	lw	s0,24(sp)
   11bb4:	02010113          	addi	sp,sp,32
   11bb8:	00008067          	ret

00011bbc <MachineTimerObjConfigInit>:
MachineTimerObjConfigInit():
D:\CreateIC\01_CPIPC\riscv\RISCV_ENC_20220421\Firmware_true\app_prj\app_demo\Debug/../src/Bsp/Driver/hme_timer.c:57
 * @brief  MachineTimer寄存器参数初始化
 * @param  pstTimerObj：TImer对象
 * @retval 无
*****************************************************************/
void MachineTimerObjConfigInit(PST_TIMER_ATTR pstTimerObj)
{
   11bbc:	fd010113          	addi	sp,sp,-48
   11bc0:	02112623          	sw	ra,44(sp)
   11bc4:	02812423          	sw	s0,40(sp)
   11bc8:	03010413          	addi	s0,sp,48
   11bcc:	fca42e23          	sw	a0,-36(s0)
D:\CreateIC\01_CPIPC\riscv\RISCV_ENC_20220421\Firmware_true\app_prj\app_demo\Debug/../src/Bsp/Driver/hme_timer.c:58
	assert_param(NULL != pstTimerObj);
   11bd0:	fdc42783          	lw	a5,-36(s0)
   11bd4:	00079a63          	bnez	a5,11be8 <MachineTimerObjConfigInit+0x2c>
D:\CreateIC\01_CPIPC\riscv\RISCV_ENC_20220421\Firmware_true\app_prj\app_demo\Debug/../src/Bsp/Driver/hme_timer.c:58 (discriminator 1)
   11bd8:	03a00593          	li	a1,58
   11bdc:	000157b7          	lui	a5,0x15
   11be0:	15878513          	addi	a0,a5,344 # 15158 <__init_array_end+0x94>
   11be4:	7f4010ef          	jal	ra,133d8 <assert_failed>
D:\CreateIC\01_CPIPC\riscv\RISCV_ENC_20220421\Firmware_true\app_prj\app_demo\Debug/../src/Bsp/Driver/hme_timer.c:59
	assert_param(NULL != pstTimerObj->pstCtrller);
   11be8:	fdc42783          	lw	a5,-36(s0)
   11bec:	0147a783          	lw	a5,20(a5)
   11bf0:	00079a63          	bnez	a5,11c04 <MachineTimerObjConfigInit+0x48>
D:\CreateIC\01_CPIPC\riscv\RISCV_ENC_20220421\Firmware_true\app_prj\app_demo\Debug/../src/Bsp/Driver/hme_timer.c:59 (discriminator 1)
   11bf4:	03b00593          	li	a1,59
   11bf8:	000157b7          	lui	a5,0x15
   11bfc:	15878513          	addi	a0,a5,344 # 15158 <__init_array_end+0x94>
   11c00:	7d8010ef          	jal	ra,133d8 <assert_failed>
D:\CreateIC\01_CPIPC\riscv\RISCV_ENC_20220421\Firmware_true\app_prj\app_demo\Debug/../src/Bsp/Driver/hme_timer.c:60
	assert_param(pstTimerObj->usDevId == DEF_MACHINE_TIMER_ID);
   11c04:	fdc42783          	lw	a5,-36(s0)
   11c08:	0007d783          	lhu	a5,0(a5)
   11c0c:	00078a63          	beqz	a5,11c20 <MachineTimerObjConfigInit+0x64>
D:\CreateIC\01_CPIPC\riscv\RISCV_ENC_20220421\Firmware_true\app_prj\app_demo\Debug/../src/Bsp/Driver/hme_timer.c:60 (discriminator 1)
   11c10:	03c00593          	li	a1,60
   11c14:	000157b7          	lui	a5,0x15
   11c18:	15878513          	addi	a0,a5,344 # 15158 <__init_array_end+0x94>
   11c1c:	7bc010ef          	jal	ra,133d8 <assert_failed>
D:\CreateIC\01_CPIPC\riscv\RISCV_ENC_20220421\Firmware_true\app_prj\app_demo\Debug/../src/Bsp/Driver/hme_timer.c:62

	ST_PLIC_REG_PARAM stTimerRegParam = {0};
   11c20:	fe042023          	sw	zero,-32(s0)
   11c24:	fe042223          	sw	zero,-28(s0)
   11c28:	fe042423          	sw	zero,-24(s0)
D:\CreateIC\01_CPIPC\riscv\RISCV_ENC_20220421\Firmware_true\app_prj\app_demo\Debug/../src/Bsp/Driver/hme_timer.c:63
	uint32_t ulTimerEnVal= 0;
   11c2c:	fe042623          	sw	zero,-20(s0)
D:\CreateIC\01_CPIPC\riscv\RISCV_ENC_20220421\Firmware_true\app_prj\app_demo\Debug/../src/Bsp/Driver/hme_timer.c:65

    ulTimerEnVal = DevIntrEnTableGet(pstTimerObj->usDevId);
   11c30:	fdc42783          	lw	a5,-36(s0)
   11c34:	0007d783          	lhu	a5,0(a5)
   11c38:	00078513          	mv	a0,a5
   11c3c:	f10ff0ef          	jal	ra,1134c <DevIntrEnTableGet>
   11c40:	fea42623          	sw	a0,-20(s0)
D:\CreateIC\01_CPIPC\riscv\RISCV_ENC_20220421\Firmware_true\app_prj\app_demo\Debug/../src/Bsp/Driver/hme_timer.c:67

    stTimerRegParam.usIntrId    = DevIntrIdTableGet(pstTimerObj->usDevId);
   11c44:	fdc42783          	lw	a5,-36(s0)
   11c48:	0007d783          	lhu	a5,0(a5)
   11c4c:	00078513          	mv	a0,a5
   11c50:	d24ff0ef          	jal	ra,11174 <DevIntrIdTableGet>
   11c54:	00050793          	mv	a5,a0
   11c58:	fef41023          	sh	a5,-32(s0)
D:\CreateIC\01_CPIPC\riscv\RISCV_ENC_20220421\Firmware_true\app_prj\app_demo\Debug/../src/Bsp/Driver/hme_timer.c:68
    stTimerRegParam.IntrHander  = PlicMachineTimerHandle;
   11c5c:	000127b7          	lui	a5,0x12
   11c60:	f4878793          	addi	a5,a5,-184 # 11f48 <PlicMachineTimerHandle>
   11c64:	fef42223          	sw	a5,-28(s0)
D:\CreateIC\01_CPIPC\riscv\RISCV_ENC_20220421\Firmware_true\app_prj\app_demo\Debug/../src/Bsp/Driver/hme_timer.c:69
    stTimerRegParam.ptrBackCall = pstTimerObj;
   11c68:	fdc42783          	lw	a5,-36(s0)
   11c6c:	fef42423          	sw	a5,-24(s0)
D:\CreateIC\01_CPIPC\riscv\RISCV_ENC_20220421\Firmware_true\app_prj\app_demo\Debug/../src/Bsp/Driver/hme_timer.c:71

    if (pstTimerObj->stPlicCfgParam.ucIntrEnFlage)
   11c70:	fdc42783          	lw	a5,-36(s0)
   11c74:	0107c783          	lbu	a5,16(a5)
   11c78:	04078063          	beqz	a5,11cb8 <MachineTimerObjConfigInit+0xfc>
D:\CreateIC\01_CPIPC\riscv\RISCV_ENC_20220421\Firmware_true\app_prj\app_demo\Debug/../src/Bsp/Driver/hme_timer.c:74
    {
    	//intr Priority set
    	IntrPrioritySet(pstTimerObj->usDevId, pstTimerObj->stPlicCfgParam.ucPriority);
   11c7c:	fdc42783          	lw	a5,-36(s0)
   11c80:	0007d703          	lhu	a4,0(a5)
   11c84:	fdc42783          	lw	a5,-36(s0)
   11c88:	0117c783          	lbu	a5,17(a5)
   11c8c:	00078593          	mv	a1,a5
   11c90:	00070513          	mv	a0,a4
   11c94:	fa4ff0ef          	jal	ra,11438 <IntrPrioritySet>
D:\CreateIC\01_CPIPC\riscv\RISCV_ENC_20220421\Firmware_true\app_prj\app_demo\Debug/../src/Bsp/Driver/hme_timer.c:76
        //intr handle register
    	PlicIntrHandleRegister(&stTimerRegParam, pstTimerObj->usDevId);
   11c98:	fdc42783          	lw	a5,-36(s0)
   11c9c:	0007d703          	lhu	a4,0(a5)
   11ca0:	fe040793          	addi	a5,s0,-32
   11ca4:	00070593          	mv	a1,a4
   11ca8:	00078513          	mv	a0,a5
   11cac:	aedff0ef          	jal	ra,11798 <PlicIntrHandleRegister>
D:\CreateIC\01_CPIPC\riscv\RISCV_ENC_20220421\Firmware_true\app_prj\app_demo\Debug/../src/Bsp/Driver/hme_timer.c:78
    	//intr handle enable
    	PlicEnableSet(ulTimerEnVal);
   11cb0:	fec42503          	lw	a0,-20(s0)
   11cb4:	9d5ff0ef          	jal	ra,11688 <PlicEnableSet>
D:\CreateIC\01_CPIPC\riscv\RISCV_ENC_20220421\Firmware_true\app_prj\app_demo\Debug/../src/Bsp/Driver/hme_timer.c:81
    }

    MachineTimerCmpAdjuct(pstTimerObj);
   11cb8:	fdc42503          	lw	a0,-36(s0)
   11cbc:	018000ef          	jal	ra,11cd4 <MachineTimerCmpAdjuct>
D:\CreateIC\01_CPIPC\riscv\RISCV_ENC_20220421\Firmware_true\app_prj\app_demo\Debug/../src/Bsp/Driver/hme_timer.c:82
}
   11cc0:	00000013          	nop
   11cc4:	02c12083          	lw	ra,44(sp)
   11cc8:	02812403          	lw	s0,40(sp)
   11ccc:	03010113          	addi	sp,sp,48
   11cd0:	00008067          	ret

00011cd4 <MachineTimerCmpAdjuct>:
MachineTimerCmpAdjuct():
D:\CreateIC\01_CPIPC\riscv\RISCV_ENC_20220421\Firmware_true\app_prj\app_demo\Debug/../src/Bsp/Driver/hme_timer.c:106
 * @brief  MachineTimer比较寄存器调整
 * @param  pstTimerObj：TImer对象
 * @retval 无
*****************************************************************/
void MachineTimerCmpAdjuct(PST_TIMER_ATTR pstTimerObj)
{
   11cd4:	fb010113          	addi	sp,sp,-80
   11cd8:	04112623          	sw	ra,76(sp)
   11cdc:	04812423          	sw	s0,72(sp)
   11ce0:	05212223          	sw	s2,68(sp)
   11ce4:	05312023          	sw	s3,64(sp)
   11ce8:	03412e23          	sw	s4,60(sp)
   11cec:	03512c23          	sw	s5,56(sp)
   11cf0:	03612a23          	sw	s6,52(sp)
   11cf4:	03712823          	sw	s7,48(sp)
   11cf8:	03812623          	sw	s8,44(sp)
   11cfc:	03912423          	sw	s9,40(sp)
   11d00:	05010413          	addi	s0,sp,80
   11d04:	faa42e23          	sw	a0,-68(s0)
D:\CreateIC\01_CPIPC\riscv\RISCV_ENC_20220421\Firmware_true\app_prj\app_demo\Debug/../src/Bsp/Driver/hme_timer.c:107
	assert_param(NULL != pstTimerObj);
   11d08:	fbc42783          	lw	a5,-68(s0)
   11d0c:	00079a63          	bnez	a5,11d20 <MachineTimerCmpAdjuct+0x4c>
D:\CreateIC\01_CPIPC\riscv\RISCV_ENC_20220421\Firmware_true\app_prj\app_demo\Debug/../src/Bsp/Driver/hme_timer.c:107 (discriminator 1)
   11d10:	06b00593          	li	a1,107
   11d14:	000157b7          	lui	a5,0x15
   11d18:	15878513          	addi	a0,a5,344 # 15158 <__init_array_end+0x94>
   11d1c:	6bc010ef          	jal	ra,133d8 <assert_failed>
D:\CreateIC\01_CPIPC\riscv\RISCV_ENC_20220421\Firmware_true\app_prj\app_demo\Debug/../src/Bsp/Driver/hme_timer.c:108
	assert_param(NULL != pstTimerObj->pstCtrller);
   11d20:	fbc42783          	lw	a5,-68(s0)
   11d24:	0147a783          	lw	a5,20(a5)
   11d28:	00079a63          	bnez	a5,11d3c <MachineTimerCmpAdjuct+0x68>
D:\CreateIC\01_CPIPC\riscv\RISCV_ENC_20220421\Firmware_true\app_prj\app_demo\Debug/../src/Bsp/Driver/hme_timer.c:108 (discriminator 1)
   11d2c:	06c00593          	li	a1,108
   11d30:	000157b7          	lui	a5,0x15
   11d34:	15878513          	addi	a0,a5,344 # 15158 <__init_array_end+0x94>
   11d38:	6a0010ef          	jal	ra,133d8 <assert_failed>
D:\CreateIC\01_CPIPC\riscv\RISCV_ENC_20220421\Firmware_true\app_prj\app_demo\Debug/../src/Bsp/Driver/hme_timer.c:110

	uint32_t ulCurTimerL = 0;
   11d3c:	fc042623          	sw	zero,-52(s0)
D:\CreateIC\01_CPIPC\riscv\RISCV_ENC_20220421\Firmware_true\app_prj\app_demo\Debug/../src/Bsp/Driver/hme_timer.c:111
	uint32_t ulCurTimerH = 0;
   11d40:	fc042423          	sw	zero,-56(s0)
D:\CreateIC\01_CPIPC\riscv\RISCV_ENC_20220421\Firmware_true\app_prj\app_demo\Debug/../src/Bsp/Driver/hme_timer.c:112
	uint64_t ulCurTimer = 0;
   11d44:	00000793          	li	a5,0
   11d48:	00000813          	li	a6,0
   11d4c:	fcf42023          	sw	a5,-64(s0)
   11d50:	fd042223          	sw	a6,-60(s0)
D:\CreateIC\01_CPIPC\riscv\RISCV_ENC_20220421\Firmware_true\app_prj\app_demo\Debug/../src/Bsp/Driver/hme_timer.c:114

    ulCurTimerL = MachineTimerCtrllerCurTimeLGet(pstTimerObj->pstCtrller);
   11d54:	fbc42783          	lw	a5,-68(s0)
   11d58:	0147a783          	lw	a5,20(a5)
   11d5c:	00078513          	mv	a0,a5
   11d60:	0d0000ef          	jal	ra,11e30 <MachineTimerCtrllerCurTimeLGet>
   11d64:	fca42623          	sw	a0,-52(s0)
D:\CreateIC\01_CPIPC\riscv\RISCV_ENC_20220421\Firmware_true\app_prj\app_demo\Debug/../src/Bsp/Driver/hme_timer.c:115
    ulCurTimerH = MachineTimerCtrllerCurTimeHGet(pstTimerObj->pstCtrller);
   11d68:	fbc42783          	lw	a5,-68(s0)
   11d6c:	0147a783          	lw	a5,20(a5)
   11d70:	00078513          	mv	a0,a5
   11d74:	104000ef          	jal	ra,11e78 <MachineTimerCtrllerCurTimeHGet>
   11d78:	fca42423          	sw	a0,-56(s0)
D:\CreateIC\01_CPIPC\riscv\RISCV_ENC_20220421\Firmware_true\app_prj\app_demo\Debug/../src/Bsp/Driver/hme_timer.c:116
    ulCurTimer = (((uint64_t)ulCurTimerH << 32) | ulCurTimerL);
   11d7c:	fc842783          	lw	a5,-56(s0)
   11d80:	00078c13          	mv	s8,a5
   11d84:	00000c93          	li	s9,0
   11d88:	000c1993          	slli	s3,s8,0x0
   11d8c:	00000913          	li	s2,0
   11d90:	fcc42783          	lw	a5,-52(s0)
   11d94:	00078b13          	mv	s6,a5
   11d98:	00000b93          	li	s7,0
   11d9c:	016967b3          	or	a5,s2,s6
   11da0:	fcf42023          	sw	a5,-64(s0)
   11da4:	0179e7b3          	or	a5,s3,s7
   11da8:	fcf42223          	sw	a5,-60(s0)
D:\CreateIC\01_CPIPC\riscv\RISCV_ENC_20220421\Firmware_true\app_prj\app_demo\Debug/../src/Bsp/Driver/hme_timer.c:117
    ulCurTimer = ulCurTimer + pstTimerObj->ulIntrPeriod;
   11dac:	fbc42783          	lw	a5,-68(s0)
   11db0:	0047a783          	lw	a5,4(a5)
   11db4:	00078a13          	mv	s4,a5
   11db8:	00000a93          	li	s5,0
   11dbc:	fc042683          	lw	a3,-64(s0)
   11dc0:	fc442703          	lw	a4,-60(s0)
   11dc4:	014687b3          	add	a5,a3,s4
   11dc8:	00078613          	mv	a2,a5
   11dcc:	00d63633          	sltu	a2,a2,a3
   11dd0:	01570833          	add	a6,a4,s5
   11dd4:	01060733          	add	a4,a2,a6
   11dd8:	00070813          	mv	a6,a4
   11ddc:	fcf42023          	sw	a5,-64(s0)
   11de0:	fd042223          	sw	a6,-60(s0)
D:\CreateIC\01_CPIPC\riscv\RISCV_ENC_20220421\Firmware_true\app_prj\app_demo\Debug/../src/Bsp/Driver/hme_timer.c:118
    MachineTimerCtrllerCmpSet(pstTimerObj->pstCtrller, ulCurTimer);
   11de4:	fbc42783          	lw	a5,-68(s0)
   11de8:	0147a783          	lw	a5,20(a5)
   11dec:	fc042583          	lw	a1,-64(s0)
   11df0:	fc442603          	lw	a2,-60(s0)
   11df4:	00078513          	mv	a0,a5
   11df8:	0c8000ef          	jal	ra,11ec0 <MachineTimerCtrllerCmpSet>
D:\CreateIC\01_CPIPC\riscv\RISCV_ENC_20220421\Firmware_true\app_prj\app_demo\Debug/../src/Bsp/Driver/hme_timer.c:119
}
   11dfc:	00000013          	nop
   11e00:	04c12083          	lw	ra,76(sp)
   11e04:	04812403          	lw	s0,72(sp)
   11e08:	04412903          	lw	s2,68(sp)
   11e0c:	04012983          	lw	s3,64(sp)
   11e10:	03c12a03          	lw	s4,60(sp)
   11e14:	03812a83          	lw	s5,56(sp)
   11e18:	03412b03          	lw	s6,52(sp)
   11e1c:	03012b83          	lw	s7,48(sp)
   11e20:	02c12c03          	lw	s8,44(sp)
   11e24:	02812c83          	lw	s9,40(sp)
   11e28:	05010113          	addi	sp,sp,80
   11e2c:	00008067          	ret

00011e30 <MachineTimerCtrllerCurTimeLGet>:
MachineTimerCtrllerCurTimeLGet():
D:\CreateIC\01_CPIPC\riscv\RISCV_ENC_20220421\Firmware_true\app_prj\app_demo\Debug/../src/Bsp/Driver/hme_timer.c:127
 * @brief  MachineTimer控制器当前计数值低位获取
 * @param  ptrTimerCtrller：Timer控制器
 * @retval uint32_t：返回低位计数值
*****************************************************************/
uint32_t MachineTimerCtrllerCurTimeLGet(PST_MACH_TIME_RegDef ptrTimerCtrller)
{
   11e30:	fe010113          	addi	sp,sp,-32
   11e34:	00112e23          	sw	ra,28(sp)
   11e38:	00812c23          	sw	s0,24(sp)
   11e3c:	02010413          	addi	s0,sp,32
   11e40:	fea42623          	sw	a0,-20(s0)
D:\CreateIC\01_CPIPC\riscv\RISCV_ENC_20220421\Firmware_true\app_prj\app_demo\Debug/../src/Bsp/Driver/hme_timer.c:128
	assert_param(NULL != ptrTimerCtrller);
   11e44:	fec42783          	lw	a5,-20(s0)
   11e48:	00079a63          	bnez	a5,11e5c <MachineTimerCtrllerCurTimeLGet+0x2c>
D:\CreateIC\01_CPIPC\riscv\RISCV_ENC_20220421\Firmware_true\app_prj\app_demo\Debug/../src/Bsp/Driver/hme_timer.c:128 (discriminator 1)
   11e4c:	08000593          	li	a1,128
   11e50:	000157b7          	lui	a5,0x15
   11e54:	15878513          	addi	a0,a5,344 # 15158 <__init_array_end+0x94>
   11e58:	580010ef          	jal	ra,133d8 <assert_failed>
D:\CreateIC\01_CPIPC\riscv\RISCV_ENC_20220421\Firmware_true\app_prj\app_demo\Debug/../src/Bsp/Driver/hme_timer.c:129
	return ptrTimerCtrller->CUR_CNTL;
   11e5c:	fec42783          	lw	a5,-20(s0)
   11e60:	0007a783          	lw	a5,0(a5)
D:\CreateIC\01_CPIPC\riscv\RISCV_ENC_20220421\Firmware_true\app_prj\app_demo\Debug/../src/Bsp/Driver/hme_timer.c:130
}
   11e64:	00078513          	mv	a0,a5
   11e68:	01c12083          	lw	ra,28(sp)
   11e6c:	01812403          	lw	s0,24(sp)
   11e70:	02010113          	addi	sp,sp,32
   11e74:	00008067          	ret

00011e78 <MachineTimerCtrllerCurTimeHGet>:
MachineTimerCtrllerCurTimeHGet():
D:\CreateIC\01_CPIPC\riscv\RISCV_ENC_20220421\Firmware_true\app_prj\app_demo\Debug/../src/Bsp/Driver/hme_timer.c:138
 * @brief  MachineTimer控制器当前计数值高位获取
 * @param  ptrTimerCtrller：Timer控制器
 * @retval uint32_t：返回高位计数值
*****************************************************************/
uint32_t MachineTimerCtrllerCurTimeHGet(PST_MACH_TIME_RegDef ptrTimerCtrller)
{
   11e78:	fe010113          	addi	sp,sp,-32
   11e7c:	00112e23          	sw	ra,28(sp)
   11e80:	00812c23          	sw	s0,24(sp)
   11e84:	02010413          	addi	s0,sp,32
   11e88:	fea42623          	sw	a0,-20(s0)
D:\CreateIC\01_CPIPC\riscv\RISCV_ENC_20220421\Firmware_true\app_prj\app_demo\Debug/../src/Bsp/Driver/hme_timer.c:139
	assert_param(NULL != ptrTimerCtrller);
   11e8c:	fec42783          	lw	a5,-20(s0)
   11e90:	00079a63          	bnez	a5,11ea4 <MachineTimerCtrllerCurTimeHGet+0x2c>
D:\CreateIC\01_CPIPC\riscv\RISCV_ENC_20220421\Firmware_true\app_prj\app_demo\Debug/../src/Bsp/Driver/hme_timer.c:139 (discriminator 1)
   11e94:	08b00593          	li	a1,139
   11e98:	000157b7          	lui	a5,0x15
   11e9c:	15878513          	addi	a0,a5,344 # 15158 <__init_array_end+0x94>
   11ea0:	538010ef          	jal	ra,133d8 <assert_failed>
D:\CreateIC\01_CPIPC\riscv\RISCV_ENC_20220421\Firmware_true\app_prj\app_demo\Debug/../src/Bsp/Driver/hme_timer.c:140
	return ptrTimerCtrller->CUR_CNTH;
   11ea4:	fec42783          	lw	a5,-20(s0)
   11ea8:	0047a783          	lw	a5,4(a5)
D:\CreateIC\01_CPIPC\riscv\RISCV_ENC_20220421\Firmware_true\app_prj\app_demo\Debug/../src/Bsp/Driver/hme_timer.c:141
}
   11eac:	00078513          	mv	a0,a5
   11eb0:	01c12083          	lw	ra,28(sp)
   11eb4:	01812403          	lw	s0,24(sp)
   11eb8:	02010113          	addi	sp,sp,32
   11ebc:	00008067          	ret

00011ec0 <MachineTimerCtrllerCmpSet>:
MachineTimerCtrllerCmpSet():
D:\CreateIC\01_CPIPC\riscv\RISCV_ENC_20220421\Firmware_true\app_prj\app_demo\Debug/../src/Bsp/Driver/hme_timer.c:149
 * @brief  MachineTimer控制器比较寄存器设置
 * @param  ptrTimerCtrller：Timer控制器， ullComVal:比较值的配置参数
 * @retval 无
*****************************************************************/
void MachineTimerCtrllerCmpSet(PST_MACH_TIME_RegDef ptrTimerCtrller, uint64_t ullComVal)
{
   11ec0:	fd010113          	addi	sp,sp,-48
   11ec4:	02112623          	sw	ra,44(sp)
   11ec8:	02812423          	sw	s0,40(sp)
   11ecc:	03212223          	sw	s2,36(sp)
   11ed0:	03312023          	sw	s3,32(sp)
   11ed4:	03010413          	addi	s0,sp,48
   11ed8:	fca42e23          	sw	a0,-36(s0)
   11edc:	fcb42823          	sw	a1,-48(s0)
   11ee0:	fcc42a23          	sw	a2,-44(s0)
D:\CreateIC\01_CPIPC\riscv\RISCV_ENC_20220421\Firmware_true\app_prj\app_demo\Debug/../src/Bsp/Driver/hme_timer.c:150
	assert_param(NULL != ptrTimerCtrller);
   11ee4:	fdc42783          	lw	a5,-36(s0)
   11ee8:	00079a63          	bnez	a5,11efc <MachineTimerCtrllerCmpSet+0x3c>
D:\CreateIC\01_CPIPC\riscv\RISCV_ENC_20220421\Firmware_true\app_prj\app_demo\Debug/../src/Bsp/Driver/hme_timer.c:150 (discriminator 1)
   11eec:	09600593          	li	a1,150
   11ef0:	000157b7          	lui	a5,0x15
   11ef4:	15878513          	addi	a0,a5,344 # 15158 <__init_array_end+0x94>
   11ef8:	4e0010ef          	jal	ra,133d8 <assert_failed>
D:\CreateIC\01_CPIPC\riscv\RISCV_ENC_20220421\Firmware_true\app_prj\app_demo\Debug/../src/Bsp/Driver/hme_timer.c:151
	uint32_t ulCurTimerL = ullComVal & 0xFFFFFFFF;
   11efc:	fd042783          	lw	a5,-48(s0)
   11f00:	fef42623          	sw	a5,-20(s0)
D:\CreateIC\01_CPIPC\riscv\RISCV_ENC_20220421\Firmware_true\app_prj\app_demo\Debug/../src/Bsp/Driver/hme_timer.c:152
	uint32_t ulCurTimerH = (ullComVal >> 32) & 0xFFFFFFFF;
   11f04:	fd442783          	lw	a5,-44(s0)
   11f08:	0007d913          	srli	s2,a5,0x0
   11f0c:	00000993          	li	s3,0
   11f10:	ff242423          	sw	s2,-24(s0)
D:\CreateIC\01_CPIPC\riscv\RISCV_ENC_20220421\Firmware_true\app_prj\app_demo\Debug/../src/Bsp/Driver/hme_timer.c:154

	ptrTimerCtrller->CMPH = ulCurTimerH;
   11f14:	fdc42783          	lw	a5,-36(s0)
   11f18:	fe842703          	lw	a4,-24(s0)
   11f1c:	00e7a623          	sw	a4,12(a5)
D:\CreateIC\01_CPIPC\riscv\RISCV_ENC_20220421\Firmware_true\app_prj\app_demo\Debug/../src/Bsp/Driver/hme_timer.c:155
	ptrTimerCtrller->CMPL = ulCurTimerL;
   11f20:	fdc42783          	lw	a5,-36(s0)
   11f24:	fec42703          	lw	a4,-20(s0)
   11f28:	00e7a423          	sw	a4,8(a5)
D:\CreateIC\01_CPIPC\riscv\RISCV_ENC_20220421\Firmware_true\app_prj\app_demo\Debug/../src/Bsp/Driver/hme_timer.c:156
}
   11f2c:	00000013          	nop
   11f30:	02c12083          	lw	ra,44(sp)
   11f34:	02812403          	lw	s0,40(sp)
   11f38:	02412903          	lw	s2,36(sp)
   11f3c:	02012983          	lw	s3,32(sp)
   11f40:	03010113          	addi	sp,sp,48
   11f44:	00008067          	ret

00011f48 <PlicMachineTimerHandle>:
PlicMachineTimerHandle():
D:\CreateIC\01_CPIPC\riscv\RISCV_ENC_20220421\Firmware_true\app_prj\app_demo\Debug/../src/Bsp/Driver/hme_timer.c:164
 * @brief  MachineTimer控制器PLIC中断函数接口
 * @param  ptrBackCall：回调参数
 * @retval 无
*****************************************************************/
void PlicMachineTimerHandle(void * ptrBackCall)
{
   11f48:	fd010113          	addi	sp,sp,-48
   11f4c:	02112623          	sw	ra,44(sp)
   11f50:	02812423          	sw	s0,40(sp)
   11f54:	03010413          	addi	s0,sp,48
   11f58:	fca42e23          	sw	a0,-36(s0)
D:\CreateIC\01_CPIPC\riscv\RISCV_ENC_20220421\Firmware_true\app_prj\app_demo\Debug/../src/Bsp/Driver/hme_timer.c:165
	PST_TIMER_ATTR pstTimerObj = NULL;
   11f5c:	fe042623          	sw	zero,-20(s0)
D:\CreateIC\01_CPIPC\riscv\RISCV_ENC_20220421\Firmware_true\app_prj\app_demo\Debug/../src/Bsp/Driver/hme_timer.c:166
	if (NULL != ptrBackCall)
   11f60:	fdc42783          	lw	a5,-36(s0)
   11f64:	00078a63          	beqz	a5,11f78 <PlicMachineTimerHandle+0x30>
D:\CreateIC\01_CPIPC\riscv\RISCV_ENC_20220421\Firmware_true\app_prj\app_demo\Debug/../src/Bsp/Driver/hme_timer.c:168
	{
		pstTimerObj = (PST_TIMER_ATTR)ptrBackCall;
   11f68:	fdc42783          	lw	a5,-36(s0)
   11f6c:	fef42623          	sw	a5,-20(s0)
D:\CreateIC\01_CPIPC\riscv\RISCV_ENC_20220421\Firmware_true\app_prj\app_demo\Debug/../src/Bsp/Driver/hme_timer.c:169
		MachineTimerCmpAdjuct(pstTimerObj);
   11f70:	fec42503          	lw	a0,-20(s0)
   11f74:	d61ff0ef          	jal	ra,11cd4 <MachineTimerCmpAdjuct>
D:\CreateIC\01_CPIPC\riscv\RISCV_ENC_20220421\Firmware_true\app_prj\app_demo\Debug/../src/Bsp/Driver/hme_timer.c:171
	}
}
   11f78:	00000013          	nop
   11f7c:	02c12083          	lw	ra,44(sp)
   11f80:	02812403          	lw	s0,40(sp)
   11f84:	03010113          	addi	sp,sp,48
   11f88:	00008067          	ret

00011f8c <UartStructDeInit>:
UartStructDeInit():
D:\CreateIC\01_CPIPC\riscv\RISCV_ENC_20220421\Firmware_true\app_prj\app_demo\Debug/../src/Bsp/Driver/hme_uart.c:33
 * @brief  UART对象结构体参数默认初始化
 * @param  pstUartObj：UART设备对象
 * @retval 无
*****************************************************************/
void UartStructDeInit(PST_UART_ATTR pstUartObj)
{
   11f8c:	fe010113          	addi	sp,sp,-32
   11f90:	00112e23          	sw	ra,28(sp)
   11f94:	00812c23          	sw	s0,24(sp)
   11f98:	02010413          	addi	s0,sp,32
   11f9c:	fea42623          	sw	a0,-20(s0)
D:\CreateIC\01_CPIPC\riscv\RISCV_ENC_20220421\Firmware_true\app_prj\app_demo\Debug/../src/Bsp/Driver/hme_uart.c:34
	assert_param(NULL != pstUartObj);
   11fa0:	fec42783          	lw	a5,-20(s0)
   11fa4:	00079a63          	bnez	a5,11fb8 <UartStructDeInit+0x2c>
D:\CreateIC\01_CPIPC\riscv\RISCV_ENC_20220421\Firmware_true\app_prj\app_demo\Debug/../src/Bsp/Driver/hme_uart.c:34 (discriminator 1)
   11fa8:	02200593          	li	a1,34
   11fac:	000157b7          	lui	a5,0x15
   11fb0:	17878513          	addi	a0,a5,376 # 15178 <__init_array_end+0xb4>
   11fb4:	424010ef          	jal	ra,133d8 <assert_failed>
D:\CreateIC\01_CPIPC\riscv\RISCV_ENC_20220421\Firmware_true\app_prj\app_demo\Debug/../src/Bsp/Driver/hme_uart.c:36

	pstUartObj->usDevId = DEF_UART_DEV_ID;
   11fb8:	fec42783          	lw	a5,-20(s0)
   11fbc:	00100713          	li	a4,1
   11fc0:	00e79023          	sh	a4,0(a5)
D:\CreateIC\01_CPIPC\riscv\RISCV_ENC_20220421\Firmware_true\app_prj\app_demo\Debug/../src/Bsp/Driver/hme_uart.c:37
	pstUartObj->pucSendBuf = NULL;
   11fc4:	fec42783          	lw	a5,-20(s0)
   11fc8:	0007a223          	sw	zero,4(a5)
D:\CreateIC\01_CPIPC\riscv\RISCV_ENC_20220421\Firmware_true\app_prj\app_demo\Debug/../src/Bsp/Driver/hme_uart.c:38
	pstUartObj->pucRecvBuf = NULL;
   11fcc:	fec42783          	lw	a5,-20(s0)
   11fd0:	0007a423          	sw	zero,8(a5)
D:\CreateIC\01_CPIPC\riscv\RISCV_ENC_20220421\Firmware_true\app_prj\app_demo\Debug/../src/Bsp/Driver/hme_uart.c:39
	pstUartObj->usSendDataSize = 0;
   11fd4:	fec42783          	lw	a5,-20(s0)
   11fd8:	00079623          	sh	zero,12(a5)
D:\CreateIC\01_CPIPC\riscv\RISCV_ENC_20220421\Firmware_true\app_prj\app_demo\Debug/../src/Bsp/Driver/hme_uart.c:40
	pstUartObj->usRecvDataSize = 0;
   11fdc:	fec42783          	lw	a5,-20(s0)
   11fe0:	00079723          	sh	zero,14(a5)
D:\CreateIC\01_CPIPC\riscv\RISCV_ENC_20220421\Firmware_true\app_prj\app_demo\Debug/../src/Bsp/Driver/hme_uart.c:41
	pstUartObj->usSendBytesCnt = 0;
   11fe4:	fec42783          	lw	a5,-20(s0)
   11fe8:	00079823          	sh	zero,16(a5)
D:\CreateIC\01_CPIPC\riscv\RISCV_ENC_20220421\Firmware_true\app_prj\app_demo\Debug/../src/Bsp/Driver/hme_uart.c:42
	pstUartObj->usRecvBytesCnt = 0;
   11fec:	fec42783          	lw	a5,-20(s0)
   11ff0:	00079923          	sh	zero,18(a5)
D:\CreateIC\01_CPIPC\riscv\RISCV_ENC_20220421\Firmware_true\app_prj\app_demo\Debug/../src/Bsp/Driver/hme_uart.c:43
	pstUartObj->stCfgParam.ucFifoCtrl = UART_FIFO_CFG_EN | UART_FIFO_CFG_RRST | UART_FIFO_CFG_TRST;
   11ff4:	fec42783          	lw	a5,-20(s0)
   11ff8:	00700713          	li	a4,7
   11ffc:	00e78c23          	sb	a4,24(a5)
D:\CreateIC\01_CPIPC\riscv\RISCV_ENC_20220421\Firmware_true\app_prj\app_demo\Debug/../src/Bsp/Driver/hme_uart.c:44
	pstUartObj->stCfgParam.ucIntrCtrl = UART_INTR_ALL_DIS;
   12000:	fec42783          	lw	a5,-20(s0)
   12004:	00078b23          	sb	zero,22(a5)
D:\CreateIC\01_CPIPC\riscv\RISCV_ENC_20220421\Firmware_true\app_prj\app_demo\Debug/../src/Bsp/Driver/hme_uart.c:45
	pstUartObj->stCfgParam.ucLineCtrl = UART_LINE_CFG_WLS_8BIT;
   12008:	fec42783          	lw	a5,-20(s0)
   1200c:	00300713          	li	a4,3
   12010:	00e78ca3          	sb	a4,25(a5)
D:\CreateIC\01_CPIPC\riscv\RISCV_ENC_20220421\Firmware_true\app_prj\app_demo\Debug/../src/Bsp/Driver/hme_uart.c:46
	pstUartObj->stCfgParam.ucModemCtrl = UART_MODEM_CFG_DEFAULT;
   12014:	fec42783          	lw	a5,-20(s0)
   12018:	00078d23          	sb	zero,26(a5)
D:\CreateIC\01_CPIPC\riscv\RISCV_ENC_20220421\Firmware_true\app_prj\app_demo\Debug/../src/Bsp/Driver/hme_uart.c:47
	pstUartObj->stCfgParam.ucOscCtrl = UART_OSC_DEFAULT_VAL;
   1201c:	fec42783          	lw	a5,-20(s0)
   12020:	01000713          	li	a4,16
   12024:	00e78ba3          	sb	a4,23(a5)
D:\CreateIC\01_CPIPC\riscv\RISCV_ENC_20220421\Firmware_true\app_prj\app_demo\Debug/../src/Bsp/Driver/hme_uart.c:48
	pstUartObj->stCfgParam.ucScratchCtrl = 0;
   12028:	fec42783          	lw	a5,-20(s0)
   1202c:	00078da3          	sb	zero,27(a5)
D:\CreateIC\01_CPIPC\riscv\RISCV_ENC_20220421\Firmware_true\app_prj\app_demo\Debug/../src/Bsp/Driver/hme_uart.c:49
	pstUartObj->stCfgParam.usBaudDiv = BAUD_RATE(115200);
   12030:	fec42783          	lw	a5,-20(s0)
   12034:	02b00713          	li	a4,43
   12038:	00e79a23          	sh	a4,20(a5)
D:\CreateIC\01_CPIPC\riscv\RISCV_ENC_20220421\Firmware_true\app_prj\app_demo\Debug/../src/Bsp/Driver/hme_uart.c:51

	pstUartObj->stPlicCfgParam.ucIntrEnFlage = DISABLE;
   1203c:	fec42783          	lw	a5,-20(s0)
   12040:	00078e23          	sb	zero,28(a5)
D:\CreateIC\01_CPIPC\riscv\RISCV_ENC_20220421\Firmware_true\app_prj\app_demo\Debug/../src/Bsp/Driver/hme_uart.c:52
	pstUartObj->stPlicCfgParam.ucPriority = EN_PRIORITY_3;
   12044:	fec42783          	lw	a5,-20(s0)
   12048:	00300713          	li	a4,3
   1204c:	00e78ea3          	sb	a4,29(a5)
D:\CreateIC\01_CPIPC\riscv\RISCV_ENC_20220421\Firmware_true\app_prj\app_demo\Debug/../src/Bsp/Driver/hme_uart.c:54

	pstUartObj->pstCtrller = DEV_UART0;
   12050:	fec42783          	lw	a5,-20(s0)
   12054:	f8003737          	lui	a4,0xf8003
   12058:	02e7a023          	sw	a4,32(a5)
D:\CreateIC\01_CPIPC\riscv\RISCV_ENC_20220421\Firmware_true\app_prj\app_demo\Debug/../src/Bsp/Driver/hme_uart.c:55
}
   1205c:	00000013          	nop
   12060:	01c12083          	lw	ra,28(sp)
   12064:	01812403          	lw	s0,24(sp)
   12068:	02010113          	addi	sp,sp,32
   1206c:	00008067          	ret

00012070 <UartObjConfigInit>:
UartObjConfigInit():
D:\CreateIC\01_CPIPC\riscv\RISCV_ENC_20220421\Firmware_true\app_prj\app_demo\Debug/../src/Bsp/Driver/hme_uart.c:95
 * @brief  UART设备参数寄存器配置
 * @param  pstUartObj：UART设备对象
 * @retval 无
*****************************************************************/
void UartObjConfigInit(PST_UART_ATTR pstUartObj)
{
   12070:	fd010113          	addi	sp,sp,-48
   12074:	02112623          	sw	ra,44(sp)
   12078:	02812423          	sw	s0,40(sp)
   1207c:	03010413          	addi	s0,sp,48
   12080:	fca42e23          	sw	a0,-36(s0)
D:\CreateIC\01_CPIPC\riscv\RISCV_ENC_20220421\Firmware_true\app_prj\app_demo\Debug/../src/Bsp/Driver/hme_uart.c:96
	assert_param(NULL != pstUartObj);
   12084:	fdc42783          	lw	a5,-36(s0)
   12088:	00079a63          	bnez	a5,1209c <UartObjConfigInit+0x2c>
D:\CreateIC\01_CPIPC\riscv\RISCV_ENC_20220421\Firmware_true\app_prj\app_demo\Debug/../src/Bsp/Driver/hme_uart.c:96 (discriminator 1)
   1208c:	06000593          	li	a1,96
   12090:	000157b7          	lui	a5,0x15
   12094:	17878513          	addi	a0,a5,376 # 15178 <__init_array_end+0xb4>
   12098:	340010ef          	jal	ra,133d8 <assert_failed>
D:\CreateIC\01_CPIPC\riscv\RISCV_ENC_20220421\Firmware_true\app_prj\app_demo\Debug/../src/Bsp/Driver/hme_uart.c:97
	assert_param(NULL != pstUartObj->pstCtrller);
   1209c:	fdc42783          	lw	a5,-36(s0)
   120a0:	0207a783          	lw	a5,32(a5)
   120a4:	00079a63          	bnez	a5,120b8 <UartObjConfigInit+0x48>
D:\CreateIC\01_CPIPC\riscv\RISCV_ENC_20220421\Firmware_true\app_prj\app_demo\Debug/../src/Bsp/Driver/hme_uart.c:97 (discriminator 1)
   120a8:	06100593          	li	a1,97
   120ac:	000157b7          	lui	a5,0x15
   120b0:	17878513          	addi	a0,a5,376 # 15178 <__init_array_end+0xb4>
   120b4:	324010ef          	jal	ra,133d8 <assert_failed>
D:\CreateIC\01_CPIPC\riscv\RISCV_ENC_20220421\Firmware_true\app_prj\app_demo\Debug/../src/Bsp/Driver/hme_uart.c:99

	uint32_t ulUartEnVal= 0;
   120b8:	fe042623          	sw	zero,-20(s0)
D:\CreateIC\01_CPIPC\riscv\RISCV_ENC_20220421\Firmware_true\app_prj\app_demo\Debug/../src/Bsp/Driver/hme_uart.c:100
	ST_PLIC_REG_PARAM stUartRegParam = {0};
   120bc:	fe042023          	sw	zero,-32(s0)
   120c0:	fe042223          	sw	zero,-28(s0)
   120c4:	fe042423          	sw	zero,-24(s0)
D:\CreateIC\01_CPIPC\riscv\RISCV_ENC_20220421\Firmware_true\app_prj\app_demo\Debug/../src/Bsp/Driver/hme_uart.c:103

	//PLIC中断使能和注册
	ulUartEnVal = DevIntrEnTableGet(pstUartObj->usDevId);
   120c8:	fdc42783          	lw	a5,-36(s0)
   120cc:	0007d783          	lhu	a5,0(a5)
   120d0:	00078513          	mv	a0,a5
   120d4:	a78ff0ef          	jal	ra,1134c <DevIntrEnTableGet>
   120d8:	fea42623          	sw	a0,-20(s0)
D:\CreateIC\01_CPIPC\riscv\RISCV_ENC_20220421\Firmware_true\app_prj\app_demo\Debug/../src/Bsp/Driver/hme_uart.c:104
	stUartRegParam.usIntrId = DevIntrIdTableGet(pstUartObj->usDevId);
   120dc:	fdc42783          	lw	a5,-36(s0)
   120e0:	0007d783          	lhu	a5,0(a5)
   120e4:	00078513          	mv	a0,a5
   120e8:	88cff0ef          	jal	ra,11174 <DevIntrIdTableGet>
   120ec:	00050793          	mv	a5,a0
   120f0:	fef41023          	sh	a5,-32(s0)
D:\CreateIC\01_CPIPC\riscv\RISCV_ENC_20220421\Firmware_true\app_prj\app_demo\Debug/../src/Bsp/Driver/hme_uart.c:105
	stUartRegParam.IntrHander = PlicUartHandle;
   120f4:	000137b7          	lui	a5,0x13
   120f8:	84c78793          	addi	a5,a5,-1972 # 1284c <PlicUartHandle>
   120fc:	fef42223          	sw	a5,-28(s0)
D:\CreateIC\01_CPIPC\riscv\RISCV_ENC_20220421\Firmware_true\app_prj\app_demo\Debug/../src/Bsp/Driver/hme_uart.c:106
	stUartRegParam.ptrBackCall = pstUartObj;
   12100:	fdc42783          	lw	a5,-36(s0)
   12104:	fef42423          	sw	a5,-24(s0)
D:\CreateIC\01_CPIPC\riscv\RISCV_ENC_20220421\Firmware_true\app_prj\app_demo\Debug/../src/Bsp/Driver/hme_uart.c:107
	if (pstUartObj->stPlicCfgParam.ucIntrEnFlage)
   12108:	fdc42783          	lw	a5,-36(s0)
   1210c:	01c7c783          	lbu	a5,28(a5)
   12110:	04078063          	beqz	a5,12150 <UartObjConfigInit+0xe0>
D:\CreateIC\01_CPIPC\riscv\RISCV_ENC_20220421\Firmware_true\app_prj\app_demo\Debug/../src/Bsp/Driver/hme_uart.c:110
	{
		//intr Priority set
		IntrPrioritySet(pstUartObj->usDevId, pstUartObj->stPlicCfgParam.ucPriority);
   12114:	fdc42783          	lw	a5,-36(s0)
   12118:	0007d703          	lhu	a4,0(a5)
   1211c:	fdc42783          	lw	a5,-36(s0)
   12120:	01d7c783          	lbu	a5,29(a5)
   12124:	00078593          	mv	a1,a5
   12128:	00070513          	mv	a0,a4
   1212c:	b0cff0ef          	jal	ra,11438 <IntrPrioritySet>
D:\CreateIC\01_CPIPC\riscv\RISCV_ENC_20220421\Firmware_true\app_prj\app_demo\Debug/../src/Bsp/Driver/hme_uart.c:112
        //intr handle register
		PlicIntrHandleRegister(&stUartRegParam, pstUartObj->usDevId);
   12130:	fdc42783          	lw	a5,-36(s0)
   12134:	0007d703          	lhu	a4,0(a5)
   12138:	fe040793          	addi	a5,s0,-32
   1213c:	00070593          	mv	a1,a4
   12140:	00078513          	mv	a0,a5
   12144:	e54ff0ef          	jal	ra,11798 <PlicIntrHandleRegister>
D:\CreateIC\01_CPIPC\riscv\RISCV_ENC_20220421\Firmware_true\app_prj\app_demo\Debug/../src/Bsp/Driver/hme_uart.c:114
		//intr handle enable
		PlicEnableSet(ulUartEnVal);
   12148:	fec42503          	lw	a0,-20(s0)
   1214c:	d3cff0ef          	jal	ra,11688 <PlicEnableSet>
D:\CreateIC\01_CPIPC\riscv\RISCV_ENC_20220421\Firmware_true\app_prj\app_demo\Debug/../src/Bsp/Driver/hme_uart.c:118
	}

	//波特率配置
	UartBaudDivCfg(pstUartObj);
   12150:	fdc42503          	lw	a0,-36(s0)
   12154:	168000ef          	jal	ra,122bc <UartBaudDivCfg>
D:\CreateIC\01_CPIPC\riscv\RISCV_ENC_20220421\Firmware_true\app_prj\app_demo\Debug/../src/Bsp/Driver/hme_uart.c:120
	//FIFO配置
	UartFifoCfg(pstUartObj);
   12158:	fdc42503          	lw	a0,-36(s0)
   1215c:	28c000ef          	jal	ra,123e8 <UartFifoCfg>
D:\CreateIC\01_CPIPC\riscv\RISCV_ENC_20220421\Firmware_true\app_prj\app_demo\Debug/../src/Bsp/Driver/hme_uart.c:122
	//过采样配置
	UartOscCfg(pstUartObj);
   12160:	fdc42503          	lw	a0,-36(s0)
   12164:	300000ef          	jal	ra,12464 <UartOscCfg>
D:\CreateIC\01_CPIPC\riscv\RISCV_ENC_20220421\Firmware_true\app_prj\app_demo\Debug/../src/Bsp/Driver/hme_uart.c:124
	//调制器模式配置
	UartModemCtrlCfg(pstUartObj);
   12168:	fdc42503          	lw	a0,-36(s0)
   1216c:	3e8000ef          	jal	ra,12554 <UartModemCtrlCfg>
D:\CreateIC\01_CPIPC\riscv\RISCV_ENC_20220421\Firmware_true\app_prj\app_demo\Debug/../src/Bsp/Driver/hme_uart.c:125
	UartScratchCfg(pstUartObj);
   12170:	fdc42503          	lw	a0,-36(s0)
   12174:	4c4000ef          	jal	ra,12638 <UartScratchCfg>
D:\CreateIC\01_CPIPC\riscv\RISCV_ENC_20220421\Firmware_true\app_prj\app_demo\Debug/../src/Bsp/Driver/hme_uart.c:127
	//传输方式配置
	UartTranModeCfg(pstUartObj);
   12178:	fdc42503          	lw	a0,-36(s0)
   1217c:	1f0000ef          	jal	ra,1236c <UartTranModeCfg>
D:\CreateIC\01_CPIPC\riscv\RISCV_ENC_20220421\Firmware_true\app_prj\app_demo\Debug/../src/Bsp/Driver/hme_uart.c:129
	//串口中断配置
	UartIntrCfg(pstUartObj);
   12180:	fdc42503          	lw	a0,-36(s0)
   12184:	5d0000ef          	jal	ra,12754 <UartIntrCfg>
D:\CreateIC\01_CPIPC\riscv\RISCV_ENC_20220421\Firmware_true\app_prj\app_demo\Debug/../src/Bsp/Driver/hme_uart.c:130
}
   12188:	00000013          	nop
   1218c:	02c12083          	lw	ra,44(sp)
   12190:	02812403          	lw	s0,40(sp)
   12194:	03010113          	addi	sp,sp,48
   12198:	00008067          	ret

0001219c <UartDivAccessSet>:
UartDivAccessSet():
D:\CreateIC\01_CPIPC\riscv\RISCV_ENC_20220421\Firmware_true\app_prj\app_demo\Debug/../src/Bsp/Driver/hme_uart.c:139
 * @brief  UART设备分频参数访问使能
 * @param  pstUartObj：UART设备对象
 * @retval 无
*****************************************************************/
void UartDivAccessSet(PST_UART_ATTR pstUartObj)
{
   1219c:	fd010113          	addi	sp,sp,-48
   121a0:	02112623          	sw	ra,44(sp)
   121a4:	02812423          	sw	s0,40(sp)
   121a8:	03010413          	addi	s0,sp,48
   121ac:	fca42e23          	sw	a0,-36(s0)
D:\CreateIC\01_CPIPC\riscv\RISCV_ENC_20220421\Firmware_true\app_prj\app_demo\Debug/../src/Bsp/Driver/hme_uart.c:140
	assert_param(NULL != pstUartObj);
   121b0:	fdc42783          	lw	a5,-36(s0)
   121b4:	00079a63          	bnez	a5,121c8 <UartDivAccessSet+0x2c>
D:\CreateIC\01_CPIPC\riscv\RISCV_ENC_20220421\Firmware_true\app_prj\app_demo\Debug/../src/Bsp/Driver/hme_uart.c:140 (discriminator 1)
   121b8:	08c00593          	li	a1,140
   121bc:	000157b7          	lui	a5,0x15
   121c0:	17878513          	addi	a0,a5,376 # 15178 <__init_array_end+0xb4>
   121c4:	214010ef          	jal	ra,133d8 <assert_failed>
D:\CreateIC\01_CPIPC\riscv\RISCV_ENC_20220421\Firmware_true\app_prj\app_demo\Debug/../src/Bsp/Driver/hme_uart.c:141
	assert_param(NULL != pstUartObj->pstCtrller);
   121c8:	fdc42783          	lw	a5,-36(s0)
   121cc:	0207a783          	lw	a5,32(a5)
   121d0:	00079a63          	bnez	a5,121e4 <UartDivAccessSet+0x48>
D:\CreateIC\01_CPIPC\riscv\RISCV_ENC_20220421\Firmware_true\app_prj\app_demo\Debug/../src/Bsp/Driver/hme_uart.c:141 (discriminator 1)
   121d4:	08d00593          	li	a1,141
   121d8:	000157b7          	lui	a5,0x15
   121dc:	17878513          	addi	a0,a5,376 # 15178 <__init_array_end+0xb4>
   121e0:	1f8010ef          	jal	ra,133d8 <assert_failed>
D:\CreateIC\01_CPIPC\riscv\RISCV_ENC_20220421\Firmware_true\app_prj\app_demo\Debug/../src/Bsp/Driver/hme_uart.c:143

	PST_UART_RegDef pstUartCtrller = pstUartObj->pstCtrller;
   121e4:	fdc42783          	lw	a5,-36(s0)
   121e8:	0207a783          	lw	a5,32(a5)
   121ec:	fef42623          	sw	a5,-20(s0)
D:\CreateIC\01_CPIPC\riscv\RISCV_ENC_20220421\Firmware_true\app_prj\app_demo\Debug/../src/Bsp/Driver/hme_uart.c:144
	uint8_t  ucLineState = 0;
   121f0:	fe0405a3          	sb	zero,-21(s0)
D:\CreateIC\01_CPIPC\riscv\RISCV_ENC_20220421\Firmware_true\app_prj\app_demo\Debug/../src/Bsp/Driver/hme_uart.c:145
	ucLineState = pstUartCtrller->LCR;
   121f4:	fec42783          	lw	a5,-20(s0)
   121f8:	02c7a783          	lw	a5,44(a5)
   121fc:	fef405a3          	sb	a5,-21(s0)
D:\CreateIC\01_CPIPC\riscv\RISCV_ENC_20220421\Firmware_true\app_prj\app_demo\Debug/../src/Bsp/Driver/hme_uart.c:146
	ucLineState = ucLineState | UART_LINE_CFG_DLAB;
   12200:	feb44783          	lbu	a5,-21(s0)
   12204:	f807e793          	ori	a5,a5,-128
   12208:	fef405a3          	sb	a5,-21(s0)
D:\CreateIC\01_CPIPC\riscv\RISCV_ENC_20220421\Firmware_true\app_prj\app_demo\Debug/../src/Bsp/Driver/hme_uart.c:147
	pstUartCtrller->LCR = ucLineState;
   1220c:	feb44703          	lbu	a4,-21(s0)
   12210:	fec42783          	lw	a5,-20(s0)
   12214:	02e7a623          	sw	a4,44(a5)
D:\CreateIC\01_CPIPC\riscv\RISCV_ENC_20220421\Firmware_true\app_prj\app_demo\Debug/../src/Bsp/Driver/hme_uart.c:148
}
   12218:	00000013          	nop
   1221c:	02c12083          	lw	ra,44(sp)
   12220:	02812403          	lw	s0,40(sp)
   12224:	03010113          	addi	sp,sp,48
   12228:	00008067          	ret

0001222c <UartDivAccessClear>:
UartDivAccessClear():
D:\CreateIC\01_CPIPC\riscv\RISCV_ENC_20220421\Firmware_true\app_prj\app_demo\Debug/../src/Bsp/Driver/hme_uart.c:156
 * @brief  UART设备分频参数访问禁止
 * @param  pstUartObj：UART设备对象
 * @retval 无
*****************************************************************/
void UartDivAccessClear(PST_UART_ATTR pstUartObj)
{
   1222c:	fd010113          	addi	sp,sp,-48
   12230:	02112623          	sw	ra,44(sp)
   12234:	02812423          	sw	s0,40(sp)
   12238:	03010413          	addi	s0,sp,48
   1223c:	fca42e23          	sw	a0,-36(s0)
D:\CreateIC\01_CPIPC\riscv\RISCV_ENC_20220421\Firmware_true\app_prj\app_demo\Debug/../src/Bsp/Driver/hme_uart.c:157
	assert_param(NULL != pstUartObj);
   12240:	fdc42783          	lw	a5,-36(s0)
   12244:	00079a63          	bnez	a5,12258 <UartDivAccessClear+0x2c>
D:\CreateIC\01_CPIPC\riscv\RISCV_ENC_20220421\Firmware_true\app_prj\app_demo\Debug/../src/Bsp/Driver/hme_uart.c:157 (discriminator 1)
   12248:	09d00593          	li	a1,157
   1224c:	000157b7          	lui	a5,0x15
   12250:	17878513          	addi	a0,a5,376 # 15178 <__init_array_end+0xb4>
   12254:	184010ef          	jal	ra,133d8 <assert_failed>
D:\CreateIC\01_CPIPC\riscv\RISCV_ENC_20220421\Firmware_true\app_prj\app_demo\Debug/../src/Bsp/Driver/hme_uart.c:158
	assert_param(NULL != pstUartObj->pstCtrller);
   12258:	fdc42783          	lw	a5,-36(s0)
   1225c:	0207a783          	lw	a5,32(a5)
   12260:	00079a63          	bnez	a5,12274 <UartDivAccessClear+0x48>
D:\CreateIC\01_CPIPC\riscv\RISCV_ENC_20220421\Firmware_true\app_prj\app_demo\Debug/../src/Bsp/Driver/hme_uart.c:158 (discriminator 1)
   12264:	09e00593          	li	a1,158
   12268:	000157b7          	lui	a5,0x15
   1226c:	17878513          	addi	a0,a5,376 # 15178 <__init_array_end+0xb4>
   12270:	168010ef          	jal	ra,133d8 <assert_failed>
D:\CreateIC\01_CPIPC\riscv\RISCV_ENC_20220421\Firmware_true\app_prj\app_demo\Debug/../src/Bsp/Driver/hme_uart.c:160

	PST_UART_RegDef pstUartCtrller = pstUartObj->pstCtrller;
   12274:	fdc42783          	lw	a5,-36(s0)
   12278:	0207a783          	lw	a5,32(a5)
   1227c:	fef42623          	sw	a5,-20(s0)
D:\CreateIC\01_CPIPC\riscv\RISCV_ENC_20220421\Firmware_true\app_prj\app_demo\Debug/../src/Bsp/Driver/hme_uart.c:161
	uint8_t  ucLineState = 0;
   12280:	fe0405a3          	sb	zero,-21(s0)
D:\CreateIC\01_CPIPC\riscv\RISCV_ENC_20220421\Firmware_true\app_prj\app_demo\Debug/../src/Bsp/Driver/hme_uart.c:162
	ucLineState = pstUartCtrller->LCR;
   12284:	fec42783          	lw	a5,-20(s0)
   12288:	02c7a783          	lw	a5,44(a5)
   1228c:	fef405a3          	sb	a5,-21(s0)
D:\CreateIC\01_CPIPC\riscv\RISCV_ENC_20220421\Firmware_true\app_prj\app_demo\Debug/../src/Bsp/Driver/hme_uart.c:163
	ucLineState = ucLineState & (~UART_LINE_CFG_DLAB);
   12290:	feb44783          	lbu	a5,-21(s0)
   12294:	07f7f793          	andi	a5,a5,127
   12298:	fef405a3          	sb	a5,-21(s0)
D:\CreateIC\01_CPIPC\riscv\RISCV_ENC_20220421\Firmware_true\app_prj\app_demo\Debug/../src/Bsp/Driver/hme_uart.c:164
	pstUartCtrller->LCR = ucLineState;
   1229c:	feb44703          	lbu	a4,-21(s0)
   122a0:	fec42783          	lw	a5,-20(s0)
   122a4:	02e7a623          	sw	a4,44(a5)
D:\CreateIC\01_CPIPC\riscv\RISCV_ENC_20220421\Firmware_true\app_prj\app_demo\Debug/../src/Bsp/Driver/hme_uart.c:165
}
   122a8:	00000013          	nop
   122ac:	02c12083          	lw	ra,44(sp)
   122b0:	02812403          	lw	s0,40(sp)
   122b4:	03010113          	addi	sp,sp,48
   122b8:	00008067          	ret

000122bc <UartBaudDivCfg>:
UartBaudDivCfg():
D:\CreateIC\01_CPIPC\riscv\RISCV_ENC_20220421\Firmware_true\app_prj\app_demo\Debug/../src/Bsp/Driver/hme_uart.c:173
 * @brief  UART波特率分频配置
 * @param  pstUartObj：UART设备对象
 * @retval 无
*****************************************************************/
void UartBaudDivCfg(PST_UART_ATTR pstUartObj)
{
   122bc:	fd010113          	addi	sp,sp,-48
   122c0:	02112623          	sw	ra,44(sp)
   122c4:	02812423          	sw	s0,40(sp)
   122c8:	03010413          	addi	s0,sp,48
   122cc:	fca42e23          	sw	a0,-36(s0)
D:\CreateIC\01_CPIPC\riscv\RISCV_ENC_20220421\Firmware_true\app_prj\app_demo\Debug/../src/Bsp/Driver/hme_uart.c:174
	assert_param(NULL != pstUartObj);
   122d0:	fdc42783          	lw	a5,-36(s0)
   122d4:	00079a63          	bnez	a5,122e8 <UartBaudDivCfg+0x2c>
D:\CreateIC\01_CPIPC\riscv\RISCV_ENC_20220421\Firmware_true\app_prj\app_demo\Debug/../src/Bsp/Driver/hme_uart.c:174 (discriminator 1)
   122d8:	0ae00593          	li	a1,174
   122dc:	000157b7          	lui	a5,0x15
   122e0:	17878513          	addi	a0,a5,376 # 15178 <__init_array_end+0xb4>
   122e4:	0f4010ef          	jal	ra,133d8 <assert_failed>
D:\CreateIC\01_CPIPC\riscv\RISCV_ENC_20220421\Firmware_true\app_prj\app_demo\Debug/../src/Bsp/Driver/hme_uart.c:175
	assert_param(NULL != pstUartObj->pstCtrller);
   122e8:	fdc42783          	lw	a5,-36(s0)
   122ec:	0207a783          	lw	a5,32(a5)
   122f0:	00079a63          	bnez	a5,12304 <UartBaudDivCfg+0x48>
D:\CreateIC\01_CPIPC\riscv\RISCV_ENC_20220421\Firmware_true\app_prj\app_demo\Debug/../src/Bsp/Driver/hme_uart.c:175 (discriminator 1)
   122f4:	0af00593          	li	a1,175
   122f8:	000157b7          	lui	a5,0x15
   122fc:	17878513          	addi	a0,a5,376 # 15178 <__init_array_end+0xb4>
   12300:	0d8010ef          	jal	ra,133d8 <assert_failed>
D:\CreateIC\01_CPIPC\riscv\RISCV_ENC_20220421\Firmware_true\app_prj\app_demo\Debug/../src/Bsp/Driver/hme_uart.c:177

	PST_UART_RegDef pstUartCtrller = pstUartObj->pstCtrller;
   12304:	fdc42783          	lw	a5,-36(s0)
   12308:	0207a783          	lw	a5,32(a5)
   1230c:	fef42623          	sw	a5,-20(s0)
D:\CreateIC\01_CPIPC\riscv\RISCV_ENC_20220421\Firmware_true\app_prj\app_demo\Debug/../src/Bsp/Driver/hme_uart.c:178
	uint16_t usBaudDiv = pstUartObj->stCfgParam.usBaudDiv;
   12310:	fdc42783          	lw	a5,-36(s0)
   12314:	0147d783          	lhu	a5,20(a5)
   12318:	fef41523          	sh	a5,-22(s0)
D:\CreateIC\01_CPIPC\riscv\RISCV_ENC_20220421\Firmware_true\app_prj\app_demo\Debug/../src/Bsp/Driver/hme_uart.c:180

	UartDivAccessSet(pstUartObj);
   1231c:	fdc42503          	lw	a0,-36(s0)
   12320:	e7dff0ef          	jal	ra,1219c <UartDivAccessSet>
D:\CreateIC\01_CPIPC\riscv\RISCV_ENC_20220421\Firmware_true\app_prj\app_demo\Debug/../src/Bsp/Driver/hme_uart.c:181
	pstUartCtrller->DLL = (usBaudDiv >> 0) & 0xff;
   12324:	fea45783          	lhu	a5,-22(s0)
   12328:	0ff7f713          	andi	a4,a5,255
   1232c:	fec42783          	lw	a5,-20(s0)
   12330:	02e7a023          	sw	a4,32(a5)
D:\CreateIC\01_CPIPC\riscv\RISCV_ENC_20220421\Firmware_true\app_prj\app_demo\Debug/../src/Bsp/Driver/hme_uart.c:182
	pstUartCtrller->DLM = (usBaudDiv >> 8) & 0xff;
   12334:	fea45783          	lhu	a5,-22(s0)
   12338:	0087d793          	srli	a5,a5,0x8
   1233c:	01079793          	slli	a5,a5,0x10
   12340:	0107d793          	srli	a5,a5,0x10
   12344:	0ff7f713          	andi	a4,a5,255
   12348:	fec42783          	lw	a5,-20(s0)
   1234c:	02e7a223          	sw	a4,36(a5)
D:\CreateIC\01_CPIPC\riscv\RISCV_ENC_20220421\Firmware_true\app_prj\app_demo\Debug/../src/Bsp/Driver/hme_uart.c:183
	UartDivAccessClear(pstUartObj);
   12350:	fdc42503          	lw	a0,-36(s0)
   12354:	ed9ff0ef          	jal	ra,1222c <UartDivAccessClear>
D:\CreateIC\01_CPIPC\riscv\RISCV_ENC_20220421\Firmware_true\app_prj\app_demo\Debug/../src/Bsp/Driver/hme_uart.c:184
}
   12358:	00000013          	nop
   1235c:	02c12083          	lw	ra,44(sp)
   12360:	02812403          	lw	s0,40(sp)
   12364:	03010113          	addi	sp,sp,48
   12368:	00008067          	ret

0001236c <UartTranModeCfg>:
UartTranModeCfg():
D:\CreateIC\01_CPIPC\riscv\RISCV_ENC_20220421\Firmware_true\app_prj\app_demo\Debug/../src/Bsp/Driver/hme_uart.c:214
 * @brief  UART数据传输方式配置
 * @param  pstUartObj：UART设备对象
 * @retval 无
*****************************************************************/
void UartTranModeCfg(PST_UART_ATTR pstUartObj)
{
   1236c:	fd010113          	addi	sp,sp,-48
   12370:	02112623          	sw	ra,44(sp)
   12374:	02812423          	sw	s0,40(sp)
   12378:	03010413          	addi	s0,sp,48
   1237c:	fca42e23          	sw	a0,-36(s0)
D:\CreateIC\01_CPIPC\riscv\RISCV_ENC_20220421\Firmware_true\app_prj\app_demo\Debug/../src/Bsp/Driver/hme_uart.c:215
	assert_param(NULL != pstUartObj);
   12380:	fdc42783          	lw	a5,-36(s0)
   12384:	00079a63          	bnez	a5,12398 <UartTranModeCfg+0x2c>
D:\CreateIC\01_CPIPC\riscv\RISCV_ENC_20220421\Firmware_true\app_prj\app_demo\Debug/../src/Bsp/Driver/hme_uart.c:215 (discriminator 1)
   12388:	0d700593          	li	a1,215
   1238c:	000157b7          	lui	a5,0x15
   12390:	17878513          	addi	a0,a5,376 # 15178 <__init_array_end+0xb4>
   12394:	044010ef          	jal	ra,133d8 <assert_failed>
D:\CreateIC\01_CPIPC\riscv\RISCV_ENC_20220421\Firmware_true\app_prj\app_demo\Debug/../src/Bsp/Driver/hme_uart.c:216
	assert_param(NULL != pstUartObj->pstCtrller);
   12398:	fdc42783          	lw	a5,-36(s0)
   1239c:	0207a783          	lw	a5,32(a5)
   123a0:	00079a63          	bnez	a5,123b4 <UartTranModeCfg+0x48>
D:\CreateIC\01_CPIPC\riscv\RISCV_ENC_20220421\Firmware_true\app_prj\app_demo\Debug/../src/Bsp/Driver/hme_uart.c:216 (discriminator 1)
   123a4:	0d800593          	li	a1,216
   123a8:	000157b7          	lui	a5,0x15
   123ac:	17878513          	addi	a0,a5,376 # 15178 <__init_array_end+0xb4>
   123b0:	028010ef          	jal	ra,133d8 <assert_failed>
D:\CreateIC\01_CPIPC\riscv\RISCV_ENC_20220421\Firmware_true\app_prj\app_demo\Debug/../src/Bsp/Driver/hme_uart.c:218

	PST_UART_RegDef pstUartCtrller = pstUartObj->pstCtrller;
   123b4:	fdc42783          	lw	a5,-36(s0)
   123b8:	0207a783          	lw	a5,32(a5)
   123bc:	fef42623          	sw	a5,-20(s0)
D:\CreateIC\01_CPIPC\riscv\RISCV_ENC_20220421\Firmware_true\app_prj\app_demo\Debug/../src/Bsp/Driver/hme_uart.c:219
	pstUartCtrller->LCR = pstUartObj->stCfgParam.ucLineCtrl;
   123c0:	fdc42783          	lw	a5,-36(s0)
   123c4:	0197c783          	lbu	a5,25(a5)
   123c8:	00078713          	mv	a4,a5
   123cc:	fec42783          	lw	a5,-20(s0)
   123d0:	02e7a623          	sw	a4,44(a5)
D:\CreateIC\01_CPIPC\riscv\RISCV_ENC_20220421\Firmware_true\app_prj\app_demo\Debug/../src/Bsp/Driver/hme_uart.c:220
}
   123d4:	00000013          	nop
   123d8:	02c12083          	lw	ra,44(sp)
   123dc:	02812403          	lw	s0,40(sp)
   123e0:	03010113          	addi	sp,sp,48
   123e4:	00008067          	ret

000123e8 <UartFifoCfg>:
UartFifoCfg():
D:\CreateIC\01_CPIPC\riscv\RISCV_ENC_20220421\Firmware_true\app_prj\app_demo\Debug/../src/Bsp/Driver/hme_uart.c:242
 * @brief  UART FIFO配置
 * @param  pstUartObj：UART设备对象
 * @retval 无
*****************************************************************/
void UartFifoCfg(PST_UART_ATTR pstUartObj)
{
   123e8:	fd010113          	addi	sp,sp,-48
   123ec:	02112623          	sw	ra,44(sp)
   123f0:	02812423          	sw	s0,40(sp)
   123f4:	03010413          	addi	s0,sp,48
   123f8:	fca42e23          	sw	a0,-36(s0)
D:\CreateIC\01_CPIPC\riscv\RISCV_ENC_20220421\Firmware_true\app_prj\app_demo\Debug/../src/Bsp/Driver/hme_uart.c:243
	assert_param(NULL != pstUartObj);
   123fc:	fdc42783          	lw	a5,-36(s0)
   12400:	00079a63          	bnez	a5,12414 <UartFifoCfg+0x2c>
D:\CreateIC\01_CPIPC\riscv\RISCV_ENC_20220421\Firmware_true\app_prj\app_demo\Debug/../src/Bsp/Driver/hme_uart.c:243 (discriminator 1)
   12404:	0f300593          	li	a1,243
   12408:	000157b7          	lui	a5,0x15
   1240c:	17878513          	addi	a0,a5,376 # 15178 <__init_array_end+0xb4>
   12410:	7c9000ef          	jal	ra,133d8 <assert_failed>
D:\CreateIC\01_CPIPC\riscv\RISCV_ENC_20220421\Firmware_true\app_prj\app_demo\Debug/../src/Bsp/Driver/hme_uart.c:244
	assert_param(NULL != pstUartObj->pstCtrller);
   12414:	fdc42783          	lw	a5,-36(s0)
   12418:	0207a783          	lw	a5,32(a5)
   1241c:	00079a63          	bnez	a5,12430 <UartFifoCfg+0x48>
D:\CreateIC\01_CPIPC\riscv\RISCV_ENC_20220421\Firmware_true\app_prj\app_demo\Debug/../src/Bsp/Driver/hme_uart.c:244 (discriminator 1)
   12420:	0f400593          	li	a1,244
   12424:	000157b7          	lui	a5,0x15
   12428:	17878513          	addi	a0,a5,376 # 15178 <__init_array_end+0xb4>
   1242c:	7ad000ef          	jal	ra,133d8 <assert_failed>
D:\CreateIC\01_CPIPC\riscv\RISCV_ENC_20220421\Firmware_true\app_prj\app_demo\Debug/../src/Bsp/Driver/hme_uart.c:246

	PST_UART_RegDef pstUartCtrller = pstUartObj->pstCtrller;
   12430:	fdc42783          	lw	a5,-36(s0)
   12434:	0207a783          	lw	a5,32(a5)
   12438:	fef42623          	sw	a5,-20(s0)
D:\CreateIC\01_CPIPC\riscv\RISCV_ENC_20220421\Firmware_true\app_prj\app_demo\Debug/../src/Bsp/Driver/hme_uart.c:247
	pstUartCtrller->FCR = pstUartObj->stCfgParam.ucFifoCtrl;
   1243c:	fdc42783          	lw	a5,-36(s0)
   12440:	0187c783          	lbu	a5,24(a5)
   12444:	00078713          	mv	a4,a5
   12448:	fec42783          	lw	a5,-20(s0)
   1244c:	02e7a423          	sw	a4,40(a5)
D:\CreateIC\01_CPIPC\riscv\RISCV_ENC_20220421\Firmware_true\app_prj\app_demo\Debug/../src/Bsp/Driver/hme_uart.c:248
}
   12450:	00000013          	nop
   12454:	02c12083          	lw	ra,44(sp)
   12458:	02812403          	lw	s0,40(sp)
   1245c:	03010113          	addi	sp,sp,48
   12460:	00008067          	ret

00012464 <UartOscCfg>:
UartOscCfg():
D:\CreateIC\01_CPIPC\riscv\RISCV_ENC_20220421\Firmware_true\app_prj\app_demo\Debug/../src/Bsp/Driver/hme_uart.c:295
 * @brief  UART过采样参数配置
 * @param  pstUartObj：UART设备对象
 * @retval 无
*****************************************************************/
void UartOscCfg(PST_UART_ATTR pstUartObj)
{
   12464:	fd010113          	addi	sp,sp,-48
   12468:	02112623          	sw	ra,44(sp)
   1246c:	02812423          	sw	s0,40(sp)
   12470:	03010413          	addi	s0,sp,48
   12474:	fca42e23          	sw	a0,-36(s0)
D:\CreateIC\01_CPIPC\riscv\RISCV_ENC_20220421\Firmware_true\app_prj\app_demo\Debug/../src/Bsp/Driver/hme_uart.c:296
	assert_param(NULL != pstUartObj);
   12478:	fdc42783          	lw	a5,-36(s0)
   1247c:	00079a63          	bnez	a5,12490 <UartOscCfg+0x2c>
D:\CreateIC\01_CPIPC\riscv\RISCV_ENC_20220421\Firmware_true\app_prj\app_demo\Debug/../src/Bsp/Driver/hme_uart.c:296 (discriminator 1)
   12480:	12800593          	li	a1,296
   12484:	000157b7          	lui	a5,0x15
   12488:	17878513          	addi	a0,a5,376 # 15178 <__init_array_end+0xb4>
   1248c:	74d000ef          	jal	ra,133d8 <assert_failed>
D:\CreateIC\01_CPIPC\riscv\RISCV_ENC_20220421\Firmware_true\app_prj\app_demo\Debug/../src/Bsp/Driver/hme_uart.c:297
	assert_param(NULL != pstUartObj->pstCtrller);
   12490:	fdc42783          	lw	a5,-36(s0)
   12494:	0207a783          	lw	a5,32(a5)
   12498:	00079a63          	bnez	a5,124ac <UartOscCfg+0x48>
D:\CreateIC\01_CPIPC\riscv\RISCV_ENC_20220421\Firmware_true\app_prj\app_demo\Debug/../src/Bsp/Driver/hme_uart.c:297 (discriminator 1)
   1249c:	12900593          	li	a1,297
   124a0:	000157b7          	lui	a5,0x15
   124a4:	17878513          	addi	a0,a5,376 # 15178 <__init_array_end+0xb4>
   124a8:	731000ef          	jal	ra,133d8 <assert_failed>
D:\CreateIC\01_CPIPC\riscv\RISCV_ENC_20220421\Firmware_true\app_prj\app_demo\Debug/../src/Bsp/Driver/hme_uart.c:299

	PST_UART_RegDef pstUartCtrller = pstUartObj->pstCtrller;
   124ac:	fdc42783          	lw	a5,-36(s0)
   124b0:	0207a783          	lw	a5,32(a5)
   124b4:	fef42623          	sw	a5,-20(s0)
D:\CreateIC\01_CPIPC\riscv\RISCV_ENC_20220421\Firmware_true\app_prj\app_demo\Debug/../src/Bsp/Driver/hme_uart.c:300
	pstUartCtrller->OSCR = pstUartObj->stCfgParam.ucOscCtrl;
   124b8:	fdc42783          	lw	a5,-36(s0)
   124bc:	0177c783          	lbu	a5,23(a5)
   124c0:	00078713          	mv	a4,a5
   124c4:	fec42783          	lw	a5,-20(s0)
   124c8:	00e7aa23          	sw	a4,20(a5)
D:\CreateIC\01_CPIPC\riscv\RISCV_ENC_20220421\Firmware_true\app_prj\app_demo\Debug/../src/Bsp/Driver/hme_uart.c:301
}
   124cc:	00000013          	nop
   124d0:	02c12083          	lw	ra,44(sp)
   124d4:	02812403          	lw	s0,40(sp)
   124d8:	03010113          	addi	sp,sp,48
   124dc:	00008067          	ret

000124e0 <UartLineStatusGet>:
UartLineStatusGet():
D:\CreateIC\01_CPIPC\riscv\RISCV_ENC_20220421\Firmware_true\app_prj\app_demo\Debug/../src/Bsp/Driver/hme_uart.c:309
 * @brief  UART LSR状态数据获取
 * @param  pstUartObj：UART设备对象
 * @retval uint8_t：返回LSR状态数据
*****************************************************************/
uint8_t UartLineStatusGet(PST_UART_ATTR pstUartObj)
{
   124e0:	fd010113          	addi	sp,sp,-48
   124e4:	02112623          	sw	ra,44(sp)
   124e8:	02812423          	sw	s0,40(sp)
   124ec:	03010413          	addi	s0,sp,48
   124f0:	fca42e23          	sw	a0,-36(s0)
D:\CreateIC\01_CPIPC\riscv\RISCV_ENC_20220421\Firmware_true\app_prj\app_demo\Debug/../src/Bsp/Driver/hme_uart.c:310
	assert_param(NULL != pstUartObj);
   124f4:	fdc42783          	lw	a5,-36(s0)
   124f8:	00079a63          	bnez	a5,1250c <UartLineStatusGet+0x2c>
D:\CreateIC\01_CPIPC\riscv\RISCV_ENC_20220421\Firmware_true\app_prj\app_demo\Debug/../src/Bsp/Driver/hme_uart.c:310 (discriminator 1)
   124fc:	13600593          	li	a1,310
   12500:	000157b7          	lui	a5,0x15
   12504:	17878513          	addi	a0,a5,376 # 15178 <__init_array_end+0xb4>
   12508:	6d1000ef          	jal	ra,133d8 <assert_failed>
D:\CreateIC\01_CPIPC\riscv\RISCV_ENC_20220421\Firmware_true\app_prj\app_demo\Debug/../src/Bsp/Driver/hme_uart.c:311
	assert_param(NULL != pstUartObj->pstCtrller);
   1250c:	fdc42783          	lw	a5,-36(s0)
   12510:	0207a783          	lw	a5,32(a5)
   12514:	00079a63          	bnez	a5,12528 <UartLineStatusGet+0x48>
D:\CreateIC\01_CPIPC\riscv\RISCV_ENC_20220421\Firmware_true\app_prj\app_demo\Debug/../src/Bsp/Driver/hme_uart.c:311 (discriminator 1)
   12518:	13700593          	li	a1,311
   1251c:	000157b7          	lui	a5,0x15
   12520:	17878513          	addi	a0,a5,376 # 15178 <__init_array_end+0xb4>
   12524:	6b5000ef          	jal	ra,133d8 <assert_failed>
D:\CreateIC\01_CPIPC\riscv\RISCV_ENC_20220421\Firmware_true\app_prj\app_demo\Debug/../src/Bsp/Driver/hme_uart.c:313

	PST_UART_RegDef pstUartCtrller = pstUartObj->pstCtrller;
   12528:	fdc42783          	lw	a5,-36(s0)
   1252c:	0207a783          	lw	a5,32(a5)
   12530:	fef42623          	sw	a5,-20(s0)
D:\CreateIC\01_CPIPC\riscv\RISCV_ENC_20220421\Firmware_true\app_prj\app_demo\Debug/../src/Bsp/Driver/hme_uart.c:314
	return pstUartCtrller->LSR;
   12534:	fec42783          	lw	a5,-20(s0)
   12538:	0347a783          	lw	a5,52(a5)
   1253c:	0ff7f793          	andi	a5,a5,255
D:\CreateIC\01_CPIPC\riscv\RISCV_ENC_20220421\Firmware_true\app_prj\app_demo\Debug/../src/Bsp/Driver/hme_uart.c:315
}
   12540:	00078513          	mv	a0,a5
   12544:	02c12083          	lw	ra,44(sp)
   12548:	02812403          	lw	s0,40(sp)
   1254c:	03010113          	addi	sp,sp,48
   12550:	00008067          	ret

00012554 <UartModemCtrlCfg>:
UartModemCtrlCfg():
D:\CreateIC\01_CPIPC\riscv\RISCV_ENC_20220421\Firmware_true\app_prj\app_demo\Debug/../src/Bsp/Driver/hme_uart.c:323
 * @brief  UART modem配置
 * @param  pstUartObj：UART设备对象
 * @retval 无
*****************************************************************/
void UartModemCtrlCfg(PST_UART_ATTR pstUartObj)
{
   12554:	fe010113          	addi	sp,sp,-32
   12558:	00112e23          	sw	ra,28(sp)
   1255c:	00812c23          	sw	s0,24(sp)
   12560:	02010413          	addi	s0,sp,32
   12564:	fea42623          	sw	a0,-20(s0)
D:\CreateIC\01_CPIPC\riscv\RISCV_ENC_20220421\Firmware_true\app_prj\app_demo\Debug/../src/Bsp/Driver/hme_uart.c:324
	assert_param(NULL != pstUartObj);
   12568:	fec42783          	lw	a5,-20(s0)
   1256c:	00079a63          	bnez	a5,12580 <UartModemCtrlCfg+0x2c>
D:\CreateIC\01_CPIPC\riscv\RISCV_ENC_20220421\Firmware_true\app_prj\app_demo\Debug/../src/Bsp/Driver/hme_uart.c:324 (discriminator 1)
   12570:	14400593          	li	a1,324
   12574:	000157b7          	lui	a5,0x15
   12578:	17878513          	addi	a0,a5,376 # 15178 <__init_array_end+0xb4>
   1257c:	65d000ef          	jal	ra,133d8 <assert_failed>
D:\CreateIC\01_CPIPC\riscv\RISCV_ENC_20220421\Firmware_true\app_prj\app_demo\Debug/../src/Bsp/Driver/hme_uart.c:325
	assert_param(NULL != pstUartObj->pstCtrller);
   12580:	fec42783          	lw	a5,-20(s0)
   12584:	0207a783          	lw	a5,32(a5)
   12588:	00079a63          	bnez	a5,1259c <UartModemCtrlCfg+0x48>
D:\CreateIC\01_CPIPC\riscv\RISCV_ENC_20220421\Firmware_true\app_prj\app_demo\Debug/../src/Bsp/Driver/hme_uart.c:325 (discriminator 1)
   1258c:	14500593          	li	a1,325
   12590:	000157b7          	lui	a5,0x15
   12594:	17878513          	addi	a0,a5,376 # 15178 <__init_array_end+0xb4>
   12598:	641000ef          	jal	ra,133d8 <assert_failed>
D:\CreateIC\01_CPIPC\riscv\RISCV_ENC_20220421\Firmware_true\app_prj\app_demo\Debug/../src/Bsp/Driver/hme_uart.c:327

	pstUartObj->pstCtrller->MCR = pstUartObj->stCfgParam.ucModemCtrl;
   1259c:	fec42783          	lw	a5,-20(s0)
   125a0:	01a7c703          	lbu	a4,26(a5)
   125a4:	fec42783          	lw	a5,-20(s0)
   125a8:	0207a783          	lw	a5,32(a5)
   125ac:	02e7a823          	sw	a4,48(a5)
D:\CreateIC\01_CPIPC\riscv\RISCV_ENC_20220421\Firmware_true\app_prj\app_demo\Debug/../src/Bsp/Driver/hme_uart.c:328
}
   125b0:	00000013          	nop
   125b4:	01c12083          	lw	ra,28(sp)
   125b8:	01812403          	lw	s0,24(sp)
   125bc:	02010113          	addi	sp,sp,32
   125c0:	00008067          	ret

000125c4 <UartModemStatusGet>:
UartModemStatusGet():
D:\CreateIC\01_CPIPC\riscv\RISCV_ENC_20220421\Firmware_true\app_prj\app_demo\Debug/../src/Bsp/Driver/hme_uart.c:350
 * @brief  UART modem状态参数获取
 * @param  pstUartObj：UART设备对象
 * @retval uint8_t：返回modem状态数据
*****************************************************************/
uint8_t UartModemStatusGet(PST_UART_ATTR pstUartObj)
{
   125c4:	fd010113          	addi	sp,sp,-48
   125c8:	02112623          	sw	ra,44(sp)
   125cc:	02812423          	sw	s0,40(sp)
   125d0:	03010413          	addi	s0,sp,48
   125d4:	fca42e23          	sw	a0,-36(s0)
D:\CreateIC\01_CPIPC\riscv\RISCV_ENC_20220421\Firmware_true\app_prj\app_demo\Debug/../src/Bsp/Driver/hme_uart.c:351
	assert_param(NULL != pstUartObj);
   125d8:	fdc42783          	lw	a5,-36(s0)
   125dc:	00079a63          	bnez	a5,125f0 <UartModemStatusGet+0x2c>
D:\CreateIC\01_CPIPC\riscv\RISCV_ENC_20220421\Firmware_true\app_prj\app_demo\Debug/../src/Bsp/Driver/hme_uart.c:351 (discriminator 1)
   125e0:	15f00593          	li	a1,351
   125e4:	000157b7          	lui	a5,0x15
   125e8:	17878513          	addi	a0,a5,376 # 15178 <__init_array_end+0xb4>
   125ec:	5ed000ef          	jal	ra,133d8 <assert_failed>
D:\CreateIC\01_CPIPC\riscv\RISCV_ENC_20220421\Firmware_true\app_prj\app_demo\Debug/../src/Bsp/Driver/hme_uart.c:352
	assert_param(NULL != pstUartObj->pstCtrller);
   125f0:	fdc42783          	lw	a5,-36(s0)
   125f4:	0207a783          	lw	a5,32(a5)
   125f8:	00079a63          	bnez	a5,1260c <UartModemStatusGet+0x48>
D:\CreateIC\01_CPIPC\riscv\RISCV_ENC_20220421\Firmware_true\app_prj\app_demo\Debug/../src/Bsp/Driver/hme_uart.c:352 (discriminator 1)
   125fc:	16000593          	li	a1,352
   12600:	000157b7          	lui	a5,0x15
   12604:	17878513          	addi	a0,a5,376 # 15178 <__init_array_end+0xb4>
   12608:	5d1000ef          	jal	ra,133d8 <assert_failed>
D:\CreateIC\01_CPIPC\riscv\RISCV_ENC_20220421\Firmware_true\app_prj\app_demo\Debug/../src/Bsp/Driver/hme_uart.c:354

	PST_UART_RegDef pstUartCtrller = pstUartObj->pstCtrller;
   1260c:	fdc42783          	lw	a5,-36(s0)
   12610:	0207a783          	lw	a5,32(a5)
   12614:	fef42623          	sw	a5,-20(s0)
D:\CreateIC\01_CPIPC\riscv\RISCV_ENC_20220421\Firmware_true\app_prj\app_demo\Debug/../src/Bsp/Driver/hme_uart.c:355
	return pstUartCtrller->MSR;
   12618:	fec42783          	lw	a5,-20(s0)
   1261c:	0387a783          	lw	a5,56(a5)
   12620:	0ff7f793          	andi	a5,a5,255
D:\CreateIC\01_CPIPC\riscv\RISCV_ENC_20220421\Firmware_true\app_prj\app_demo\Debug/../src/Bsp/Driver/hme_uart.c:356
}
   12624:	00078513          	mv	a0,a5
   12628:	02c12083          	lw	ra,44(sp)
   1262c:	02812403          	lw	s0,40(sp)
   12630:	03010113          	addi	sp,sp,48
   12634:	00008067          	ret

00012638 <UartScratchCfg>:
UartScratchCfg():
D:\CreateIC\01_CPIPC\riscv\RISCV_ENC_20220421\Firmware_true\app_prj\app_demo\Debug/../src/Bsp/Driver/hme_uart.c:364
 * @brief  Uart Scratch 参数配置
 * @param  pstUartObj：UART设备对象
 * @retval 无
*****************************************************************/
void UartScratchCfg(PST_UART_ATTR pstUartObj)
{
   12638:	fd010113          	addi	sp,sp,-48
   1263c:	02112623          	sw	ra,44(sp)
   12640:	02812423          	sw	s0,40(sp)
   12644:	03010413          	addi	s0,sp,48
   12648:	fca42e23          	sw	a0,-36(s0)
D:\CreateIC\01_CPIPC\riscv\RISCV_ENC_20220421\Firmware_true\app_prj\app_demo\Debug/../src/Bsp/Driver/hme_uart.c:365
	assert_param(NULL != pstUartObj);
   1264c:	fdc42783          	lw	a5,-36(s0)
   12650:	00079a63          	bnez	a5,12664 <UartScratchCfg+0x2c>
D:\CreateIC\01_CPIPC\riscv\RISCV_ENC_20220421\Firmware_true\app_prj\app_demo\Debug/../src/Bsp/Driver/hme_uart.c:365 (discriminator 1)
   12654:	16d00593          	li	a1,365
   12658:	000157b7          	lui	a5,0x15
   1265c:	17878513          	addi	a0,a5,376 # 15178 <__init_array_end+0xb4>
   12660:	579000ef          	jal	ra,133d8 <assert_failed>
D:\CreateIC\01_CPIPC\riscv\RISCV_ENC_20220421\Firmware_true\app_prj\app_demo\Debug/../src/Bsp/Driver/hme_uart.c:366
	assert_param(NULL != pstUartObj->pstCtrller);
   12664:	fdc42783          	lw	a5,-36(s0)
   12668:	0207a783          	lw	a5,32(a5)
   1266c:	00079a63          	bnez	a5,12680 <UartScratchCfg+0x48>
D:\CreateIC\01_CPIPC\riscv\RISCV_ENC_20220421\Firmware_true\app_prj\app_demo\Debug/../src/Bsp/Driver/hme_uart.c:366 (discriminator 1)
   12670:	16e00593          	li	a1,366
   12674:	000157b7          	lui	a5,0x15
   12678:	17878513          	addi	a0,a5,376 # 15178 <__init_array_end+0xb4>
   1267c:	55d000ef          	jal	ra,133d8 <assert_failed>
D:\CreateIC\01_CPIPC\riscv\RISCV_ENC_20220421\Firmware_true\app_prj\app_demo\Debug/../src/Bsp/Driver/hme_uart.c:368

	PST_UART_RegDef pstUartCtrller = pstUartObj->pstCtrller;
   12680:	fdc42783          	lw	a5,-36(s0)
   12684:	0207a783          	lw	a5,32(a5)
   12688:	fef42623          	sw	a5,-20(s0)
D:\CreateIC\01_CPIPC\riscv\RISCV_ENC_20220421\Firmware_true\app_prj\app_demo\Debug/../src/Bsp/Driver/hme_uart.c:369
	pstUartCtrller->SCR = pstUartObj->stCfgParam.ucScratchCtrl;
   1268c:	fdc42783          	lw	a5,-36(s0)
   12690:	01b7c783          	lbu	a5,27(a5)
   12694:	00078713          	mv	a4,a5
   12698:	fec42783          	lw	a5,-20(s0)
   1269c:	02e7ae23          	sw	a4,60(a5)
D:\CreateIC\01_CPIPC\riscv\RISCV_ENC_20220421\Firmware_true\app_prj\app_demo\Debug/../src/Bsp/Driver/hme_uart.c:370
}
   126a0:	00000013          	nop
   126a4:	02c12083          	lw	ra,44(sp)
   126a8:	02812403          	lw	s0,40(sp)
   126ac:	03010113          	addi	sp,sp,48
   126b0:	00008067          	ret

000126b4 <UartByteSend>:
UartByteSend():
D:\CreateIC\01_CPIPC\riscv\RISCV_ENC_20220421\Firmware_true\app_prj\app_demo\Debug/../src/Bsp/Driver/hme_uart.c:392
 * @brief  UART字节发送
 * @param  pstUartObj：UART设备对象
 * @retval 无
*****************************************************************/
void UartByteSend(PST_UART_ATTR pstUartObj, const uint8_t ucSendData)
{
   126b4:	fd010113          	addi	sp,sp,-48
   126b8:	02112623          	sw	ra,44(sp)
   126bc:	02812423          	sw	s0,40(sp)
   126c0:	03010413          	addi	s0,sp,48
   126c4:	fca42e23          	sw	a0,-36(s0)
   126c8:	00058793          	mv	a5,a1
   126cc:	fcf40da3          	sb	a5,-37(s0)
D:\CreateIC\01_CPIPC\riscv\RISCV_ENC_20220421\Firmware_true\app_prj\app_demo\Debug/../src/Bsp/Driver/hme_uart.c:393
	assert_param(NULL != pstUartObj);
   126d0:	fdc42783          	lw	a5,-36(s0)
   126d4:	00079a63          	bnez	a5,126e8 <UartByteSend+0x34>
D:\CreateIC\01_CPIPC\riscv\RISCV_ENC_20220421\Firmware_true\app_prj\app_demo\Debug/../src/Bsp/Driver/hme_uart.c:393 (discriminator 1)
   126d8:	18900593          	li	a1,393
   126dc:	000157b7          	lui	a5,0x15
   126e0:	17878513          	addi	a0,a5,376 # 15178 <__init_array_end+0xb4>
   126e4:	4f5000ef          	jal	ra,133d8 <assert_failed>
D:\CreateIC\01_CPIPC\riscv\RISCV_ENC_20220421\Firmware_true\app_prj\app_demo\Debug/../src/Bsp/Driver/hme_uart.c:394
	assert_param(NULL != pstUartObj->pstCtrller);
   126e8:	fdc42783          	lw	a5,-36(s0)
   126ec:	0207a783          	lw	a5,32(a5)
   126f0:	00079a63          	bnez	a5,12704 <UartByteSend+0x50>
D:\CreateIC\01_CPIPC\riscv\RISCV_ENC_20220421\Firmware_true\app_prj\app_demo\Debug/../src/Bsp/Driver/hme_uart.c:394 (discriminator 1)
   126f4:	18a00593          	li	a1,394
   126f8:	000157b7          	lui	a5,0x15
   126fc:	17878513          	addi	a0,a5,376 # 15178 <__init_array_end+0xb4>
   12700:	4d9000ef          	jal	ra,133d8 <assert_failed>
D:\CreateIC\01_CPIPC\riscv\RISCV_ENC_20220421\Firmware_true\app_prj\app_demo\Debug/../src/Bsp/Driver/hme_uart.c:396

	PST_UART_RegDef pstUartCtrller = pstUartObj->pstCtrller;
   12704:	fdc42783          	lw	a5,-36(s0)
   12708:	0207a783          	lw	a5,32(a5)
   1270c:	fef42623          	sw	a5,-20(s0)
D:\CreateIC\01_CPIPC\riscv\RISCV_ENC_20220421\Firmware_true\app_prj\app_demo\Debug/../src/Bsp/Driver/hme_uart.c:397
	uint8_t ucLsrState = 0;
   12710:	fe0405a3          	sb	zero,-21(s0)
D:\CreateIC\01_CPIPC\riscv\RISCV_ENC_20220421\Firmware_true\app_prj\app_demo\Debug/../src/Bsp/Driver/hme_uart.c:401

	while (1)
	{
		ucLsrState = UartLineStatusGet(pstUartObj);
   12714:	fdc42503          	lw	a0,-36(s0)
   12718:	dc9ff0ef          	jal	ra,124e0 <UartLineStatusGet>
   1271c:	00050793          	mv	a5,a0
   12720:	fef405a3          	sb	a5,-21(s0)
D:\CreateIC\01_CPIPC\riscv\RISCV_ENC_20220421\Firmware_true\app_prj\app_demo\Debug/../src/Bsp/Driver/hme_uart.c:402
		if ((ucLsrState & UART_LINE_STATE_THRE) == UART_LINE_STATE_THRE)
   12724:	feb44783          	lbu	a5,-21(s0)
   12728:	0207f793          	andi	a5,a5,32
   1272c:	fe0784e3          	beqz	a5,12714 <UartByteSend+0x60>
D:\CreateIC\01_CPIPC\riscv\RISCV_ENC_20220421\Firmware_true\app_prj\app_demo\Debug/../src/Bsp/Driver/hme_uart.c:404
		{
			pstUartCtrller->THR = ucSendData;
   12730:	fdb44703          	lbu	a4,-37(s0)
   12734:	fec42783          	lw	a5,-20(s0)
   12738:	02e7a023          	sw	a4,32(a5)
D:\CreateIC\01_CPIPC\riscv\RISCV_ENC_20220421\Firmware_true\app_prj\app_demo\Debug/../src/Bsp/Driver/hme_uart.c:405
			break;
   1273c:	00000013          	nop
D:\CreateIC\01_CPIPC\riscv\RISCV_ENC_20220421\Firmware_true\app_prj\app_demo\Debug/../src/Bsp/Driver/hme_uart.c:408
		}
	}
}
   12740:	00000013          	nop
   12744:	02c12083          	lw	ra,44(sp)
   12748:	02812403          	lw	s0,40(sp)
   1274c:	03010113          	addi	sp,sp,48
   12750:	00008067          	ret

00012754 <UartIntrCfg>:
UartIntrCfg():
D:\CreateIC\01_CPIPC\riscv\RISCV_ENC_20220421\Firmware_true\app_prj\app_demo\Debug/../src/Bsp/Driver/hme_uart.c:546
 * @brief  UART中断配置
 * @param  pstUartObj：UART设备对象
 * @retval 无
*****************************************************************/
void UartIntrCfg(PST_UART_ATTR pstUartObj)
{
   12754:	fd010113          	addi	sp,sp,-48
   12758:	02112623          	sw	ra,44(sp)
   1275c:	02812423          	sw	s0,40(sp)
   12760:	03010413          	addi	s0,sp,48
   12764:	fca42e23          	sw	a0,-36(s0)
D:\CreateIC\01_CPIPC\riscv\RISCV_ENC_20220421\Firmware_true\app_prj\app_demo\Debug/../src/Bsp/Driver/hme_uart.c:547
	assert_param(NULL != pstUartObj);
   12768:	fdc42783          	lw	a5,-36(s0)
   1276c:	00079a63          	bnez	a5,12780 <UartIntrCfg+0x2c>
D:\CreateIC\01_CPIPC\riscv\RISCV_ENC_20220421\Firmware_true\app_prj\app_demo\Debug/../src/Bsp/Driver/hme_uart.c:547 (discriminator 1)
   12770:	22300593          	li	a1,547
   12774:	000157b7          	lui	a5,0x15
   12778:	17878513          	addi	a0,a5,376 # 15178 <__init_array_end+0xb4>
   1277c:	45d000ef          	jal	ra,133d8 <assert_failed>
D:\CreateIC\01_CPIPC\riscv\RISCV_ENC_20220421\Firmware_true\app_prj\app_demo\Debug/../src/Bsp/Driver/hme_uart.c:548
	assert_param(NULL != pstUartObj->pstCtrller);
   12780:	fdc42783          	lw	a5,-36(s0)
   12784:	0207a783          	lw	a5,32(a5)
   12788:	00079a63          	bnez	a5,1279c <UartIntrCfg+0x48>
D:\CreateIC\01_CPIPC\riscv\RISCV_ENC_20220421\Firmware_true\app_prj\app_demo\Debug/../src/Bsp/Driver/hme_uart.c:548 (discriminator 1)
   1278c:	22400593          	li	a1,548
   12790:	000157b7          	lui	a5,0x15
   12794:	17878513          	addi	a0,a5,376 # 15178 <__init_array_end+0xb4>
   12798:	441000ef          	jal	ra,133d8 <assert_failed>
D:\CreateIC\01_CPIPC\riscv\RISCV_ENC_20220421\Firmware_true\app_prj\app_demo\Debug/../src/Bsp/Driver/hme_uart.c:550

	PST_UART_RegDef pstUartCtrller = pstUartObj->pstCtrller;
   1279c:	fdc42783          	lw	a5,-36(s0)
   127a0:	0207a783          	lw	a5,32(a5)
   127a4:	fef42623          	sw	a5,-20(s0)
D:\CreateIC\01_CPIPC\riscv\RISCV_ENC_20220421\Firmware_true\app_prj\app_demo\Debug/../src/Bsp/Driver/hme_uart.c:551
	pstUartCtrller->IER = pstUartObj->stCfgParam.ucIntrCtrl;
   127a8:	fdc42783          	lw	a5,-36(s0)
   127ac:	0167c783          	lbu	a5,22(a5)
   127b0:	00078713          	mv	a4,a5
   127b4:	fec42783          	lw	a5,-20(s0)
   127b8:	02e7a223          	sw	a4,36(a5)
D:\CreateIC\01_CPIPC\riscv\RISCV_ENC_20220421\Firmware_true\app_prj\app_demo\Debug/../src/Bsp/Driver/hme_uart.c:552
}
   127bc:	00000013          	nop
   127c0:	02c12083          	lw	ra,44(sp)
   127c4:	02812403          	lw	s0,40(sp)
   127c8:	03010113          	addi	sp,sp,48
   127cc:	00008067          	ret

000127d0 <UartIntrIDGet>:
UartIntrIDGet():
D:\CreateIC\01_CPIPC\riscv\RISCV_ENC_20220421\Firmware_true\app_prj\app_demo\Debug/../src/Bsp/Driver/hme_uart.c:575
 * @brief  UART中断ID获取
 * @param  pstUartObj：UART设备对象
 * @retval 返回中断ID
*****************************************************************/
uint8_t UartIntrIDGet(PST_UART_ATTR pstUartObj)
{
   127d0:	fd010113          	addi	sp,sp,-48
   127d4:	02112623          	sw	ra,44(sp)
   127d8:	02812423          	sw	s0,40(sp)
   127dc:	03010413          	addi	s0,sp,48
   127e0:	fca42e23          	sw	a0,-36(s0)
D:\CreateIC\01_CPIPC\riscv\RISCV_ENC_20220421\Firmware_true\app_prj\app_demo\Debug/../src/Bsp/Driver/hme_uart.c:576
	assert_param(NULL != pstUartObj);
   127e4:	fdc42783          	lw	a5,-36(s0)
   127e8:	00079a63          	bnez	a5,127fc <UartIntrIDGet+0x2c>
D:\CreateIC\01_CPIPC\riscv\RISCV_ENC_20220421\Firmware_true\app_prj\app_demo\Debug/../src/Bsp/Driver/hme_uart.c:576 (discriminator 1)
   127ec:	24000593          	li	a1,576
   127f0:	000157b7          	lui	a5,0x15
   127f4:	17878513          	addi	a0,a5,376 # 15178 <__init_array_end+0xb4>
   127f8:	3e1000ef          	jal	ra,133d8 <assert_failed>
D:\CreateIC\01_CPIPC\riscv\RISCV_ENC_20220421\Firmware_true\app_prj\app_demo\Debug/../src/Bsp/Driver/hme_uart.c:577
    assert_param(NULL != pstUartObj->pstCtrller);
   127fc:	fdc42783          	lw	a5,-36(s0)
   12800:	0207a783          	lw	a5,32(a5)
   12804:	00079a63          	bnez	a5,12818 <UartIntrIDGet+0x48>
D:\CreateIC\01_CPIPC\riscv\RISCV_ENC_20220421\Firmware_true\app_prj\app_demo\Debug/../src/Bsp/Driver/hme_uart.c:577 (discriminator 1)
   12808:	24100593          	li	a1,577
   1280c:	000157b7          	lui	a5,0x15
   12810:	17878513          	addi	a0,a5,376 # 15178 <__init_array_end+0xb4>
   12814:	3c5000ef          	jal	ra,133d8 <assert_failed>
D:\CreateIC\01_CPIPC\riscv\RISCV_ENC_20220421\Firmware_true\app_prj\app_demo\Debug/../src/Bsp/Driver/hme_uart.c:579

    PST_UART_RegDef pstUartCtrller = pstUartObj->pstCtrller;
   12818:	fdc42783          	lw	a5,-36(s0)
   1281c:	0207a783          	lw	a5,32(a5)
   12820:	fef42623          	sw	a5,-20(s0)
D:\CreateIC\01_CPIPC\riscv\RISCV_ENC_20220421\Firmware_true\app_prj\app_demo\Debug/../src/Bsp/Driver/hme_uart.c:580
    return (pstUartCtrller->IIR & 0x0F);
   12824:	fec42783          	lw	a5,-20(s0)
   12828:	0287a783          	lw	a5,40(a5)
   1282c:	0ff7f793          	andi	a5,a5,255
   12830:	00f7f793          	andi	a5,a5,15
   12834:	0ff7f793          	andi	a5,a5,255
D:\CreateIC\01_CPIPC\riscv\RISCV_ENC_20220421\Firmware_true\app_prj\app_demo\Debug/../src/Bsp/Driver/hme_uart.c:581
}
   12838:	00078513          	mv	a0,a5
   1283c:	02c12083          	lw	ra,44(sp)
   12840:	02812403          	lw	s0,40(sp)
   12844:	03010113          	addi	sp,sp,48
   12848:	00008067          	ret

0001284c <PlicUartHandle>:
PlicUartHandle():
D:\CreateIC\01_CPIPC\riscv\RISCV_ENC_20220421\Firmware_true\app_prj\app_demo\Debug/../src/Bsp/Driver/hme_uart.c:591
 * @brief  UART 中断执行接口
 * @param  ptrBackCall:回调参数
 * @retval 无
*****************************************************************/
void PlicUartHandle(void * ptrBackCall)
{
   1284c:	fd010113          	addi	sp,sp,-48
   12850:	02112623          	sw	ra,44(sp)
   12854:	02812423          	sw	s0,40(sp)
   12858:	03010413          	addi	s0,sp,48
   1285c:	fca42e23          	sw	a0,-36(s0)
D:\CreateIC\01_CPIPC\riscv\RISCV_ENC_20220421\Firmware_true\app_prj\app_demo\Debug/../src/Bsp/Driver/hme_uart.c:592
	uint8_t ucIntrId = 0;
   12860:	fe0407a3          	sb	zero,-17(s0)
D:\CreateIC\01_CPIPC\riscv\RISCV_ENC_20220421\Firmware_true\app_prj\app_demo\Debug/../src/Bsp/Driver/hme_uart.c:593
	PST_UART_ATTR ptrUartObj = NULL;
   12864:	fe042423          	sw	zero,-24(s0)
D:\CreateIC\01_CPIPC\riscv\RISCV_ENC_20220421\Firmware_true\app_prj\app_demo\Debug/../src/Bsp/Driver/hme_uart.c:594
	if (NULL != ptrBackCall)
   12868:	fdc42783          	lw	a5,-36(s0)
   1286c:	02078663          	beqz	a5,12898 <PlicUartHandle+0x4c>
D:\CreateIC\01_CPIPC\riscv\RISCV_ENC_20220421\Firmware_true\app_prj\app_demo\Debug/../src/Bsp/Driver/hme_uart.c:596
	{
		ptrUartObj = (PST_UART_ATTR)ptrBackCall;
   12870:	fdc42783          	lw	a5,-36(s0)
   12874:	fef42423          	sw	a5,-24(s0)
D:\CreateIC\01_CPIPC\riscv\RISCV_ENC_20220421\Firmware_true\app_prj\app_demo\Debug/../src/Bsp/Driver/hme_uart.c:598
		//读取中断状态
		ucIntrId = UartIntrIDGet(ptrUartObj);
   12878:	fe842503          	lw	a0,-24(s0)
   1287c:	f55ff0ef          	jal	ra,127d0 <UartIntrIDGet>
   12880:	00050793          	mv	a5,a0
   12884:	fef407a3          	sb	a5,-17(s0)
D:\CreateIC\01_CPIPC\riscv\RISCV_ENC_20220421\Firmware_true\app_prj\app_demo\Debug/../src/Bsp/Driver/hme_uart.c:600
		//执行中断接口判断
	    UartIntrDispatch(ptrUartObj, ucIntrId);
   12888:	fef40783          	lb	a5,-17(s0)
   1288c:	00078593          	mv	a1,a5
   12890:	fe842503          	lw	a0,-24(s0)
   12894:	018000ef          	jal	ra,128ac <UartIntrDispatch>
D:\CreateIC\01_CPIPC\riscv\RISCV_ENC_20220421\Firmware_true\app_prj\app_demo\Debug/../src/Bsp/Driver/hme_uart.c:604


	}
}
   12898:	00000013          	nop
   1289c:	02c12083          	lw	ra,44(sp)
   128a0:	02812403          	lw	s0,40(sp)
   128a4:	03010113          	addi	sp,sp,48
   128a8:	00008067          	ret

000128ac <UartIntrDispatch>:
UartIntrDispatch():
D:\CreateIC\01_CPIPC\riscv\RISCV_ENC_20220421\Firmware_true\app_prj\app_demo\Debug/../src/Bsp/Driver/hme_uart.c:613
 * @brief  UART中断调度接口
 * @param  pstUartObj：UART设备对象， ucDispatch：调度参数
 * @retval 无
 *****************************************************************/
void UartIntrDispatch(PST_UART_ATTR pstUartObj, int8_t ucDispatch)
{
   128ac:	fe010113          	addi	sp,sp,-32
   128b0:	00112e23          	sw	ra,28(sp)
   128b4:	00812c23          	sw	s0,24(sp)
   128b8:	02010413          	addi	s0,sp,32
   128bc:	fea42623          	sw	a0,-20(s0)
   128c0:	00058793          	mv	a5,a1
   128c4:	fef405a3          	sb	a5,-21(s0)
D:\CreateIC\01_CPIPC\riscv\RISCV_ENC_20220421\Firmware_true\app_prj\app_demo\Debug/../src/Bsp/Driver/hme_uart.c:614
	switch (ucDispatch)
   128c8:	feb40783          	lb	a5,-21(s0)
   128cc:	00c00713          	li	a4,12
   128d0:	04f76c63          	bltu	a4,a5,12928 <UartIntrDispatch+0x7c>
   128d4:	00279713          	slli	a4,a5,0x2
   128d8:	000157b7          	lui	a5,0x15
   128dc:	1ec78793          	addi	a5,a5,492 # 151ec <__init_array_end+0x128>
   128e0:	00f707b3          	add	a5,a4,a5
   128e4:	0007a783          	lw	a5,0(a5)
   128e8:	00078067          	jr	a5
D:\CreateIC\01_CPIPC\riscv\RISCV_ENC_20220421\Firmware_true\app_prj\app_demo\Debug/../src/Bsp/Driver/hme_uart.c:618
	{
	    case UART_INTR_ID_RLS:
	    {
	    	UartIntrRecvErr(pstUartObj);
   128ec:	fec42503          	lw	a0,-20(s0)
   128f0:	050000ef          	jal	ra,12940 <UartIntrRecvErr>
D:\CreateIC\01_CPIPC\riscv\RISCV_ENC_20220421\Firmware_true\app_prj\app_demo\Debug/../src/Bsp/Driver/hme_uart.c:619
	    	break;
   128f4:	0380006f          	j	1292c <UartIntrDispatch+0x80>
D:\CreateIC\01_CPIPC\riscv\RISCV_ENC_20220421\Firmware_true\app_prj\app_demo\Debug/../src/Bsp/Driver/hme_uart.c:623
	    }
	    case UART_INTR_ID_RDA:						// read data available
	    {
	    	UartIntrRecvExc(pstUartObj);
   128f8:	fec42503          	lw	a0,-20(s0)
   128fc:	074000ef          	jal	ra,12970 <UartIntrRecvExc>
D:\CreateIC\01_CPIPC\riscv\RISCV_ENC_20220421\Firmware_true\app_prj\app_demo\Debug/../src/Bsp/Driver/hme_uart.c:624
	    	break;
   12900:	02c0006f          	j	1292c <UartIntrDispatch+0x80>
D:\CreateIC\01_CPIPC\riscv\RISCV_ENC_20220421\Firmware_true\app_prj\app_demo\Debug/../src/Bsp/Driver/hme_uart.c:628
	    }
	    case UART_INTR_ID_RCT:
	    {
	    	UartIntrRecvTimeOut(pstUartObj);
   12904:	fec42503          	lw	a0,-20(s0)
   12908:	2c8000ef          	jal	ra,12bd0 <UartIntrRecvTimeOut>
D:\CreateIC\01_CPIPC\riscv\RISCV_ENC_20220421\Firmware_true\app_prj\app_demo\Debug/../src/Bsp/Driver/hme_uart.c:629
	    	break;
   1290c:	0200006f          	j	1292c <UartIntrDispatch+0x80>
D:\CreateIC\01_CPIPC\riscv\RISCV_ENC_20220421\Firmware_true\app_prj\app_demo\Debug/../src/Bsp/Driver/hme_uart.c:633
	    }
	    case UART_INTR_ID_THRE:
	    {
	    	UartIntrSendExc(pstUartObj);
   12910:	fec42503          	lw	a0,-20(s0)
   12914:	324000ef          	jal	ra,12c38 <UartIntrSendExc>
D:\CreateIC\01_CPIPC\riscv\RISCV_ENC_20220421\Firmware_true\app_prj\app_demo\Debug/../src/Bsp/Driver/hme_uart.c:634
	    	break;
   12918:	0140006f          	j	1292c <UartIntrDispatch+0x80>
D:\CreateIC\01_CPIPC\riscv\RISCV_ENC_20220421\Firmware_true\app_prj\app_demo\Debug/../src/Bsp/Driver/hme_uart.c:638
	    }
	    case UART_INTR_ID_MS:
	    {
	    	UartIntrModemExc(pstUartObj);
   1291c:	fec42503          	lw	a0,-20(s0)
   12920:	348000ef          	jal	ra,12c68 <UartIntrModemExc>
D:\CreateIC\01_CPIPC\riscv\RISCV_ENC_20220421\Firmware_true\app_prj\app_demo\Debug/../src/Bsp/Driver/hme_uart.c:639
	    	break;
   12924:	0080006f          	j	1292c <UartIntrDispatch+0x80>
D:\CreateIC\01_CPIPC\riscv\RISCV_ENC_20220421\Firmware_true\app_prj\app_demo\Debug/../src/Bsp/Driver/hme_uart.c:642
	    }
	    default:
	    	break;
   12928:	00000013          	nop
D:\CreateIC\01_CPIPC\riscv\RISCV_ENC_20220421\Firmware_true\app_prj\app_demo\Debug/../src/Bsp/Driver/hme_uart.c:644
	}
}
   1292c:	00000013          	nop
   12930:	01c12083          	lw	ra,28(sp)
   12934:	01812403          	lw	s0,24(sp)
   12938:	02010113          	addi	sp,sp,32
   1293c:	00008067          	ret

00012940 <UartIntrRecvErr>:
UartIntrRecvErr():
D:\CreateIC\01_CPIPC\riscv\RISCV_ENC_20220421\Firmware_true\app_prj\app_demo\Debug/../src/Bsp/Driver/hme_uart.c:653
 * @param  pstUartObj：UART控制器对象
 * @retval 无
 * 注意：该接口预留，只作为测试处理
 *****************************************************************/
void UartIntrRecvErr(PST_UART_ATTR pstUartObj)
{
   12940:	fe010113          	addi	sp,sp,-32
   12944:	00112e23          	sw	ra,28(sp)
   12948:	00812c23          	sw	s0,24(sp)
   1294c:	02010413          	addi	s0,sp,32
   12950:	fea42623          	sw	a0,-20(s0)
D:\CreateIC\01_CPIPC\riscv\RISCV_ENC_20220421\Firmware_true\app_prj\app_demo\Debug/../src/Bsp/Driver/hme_uart.c:654
	UartLineStatusGet(pstUartObj);
   12954:	fec42503          	lw	a0,-20(s0)
   12958:	b89ff0ef          	jal	ra,124e0 <UartLineStatusGet>
D:\CreateIC\01_CPIPC\riscv\RISCV_ENC_20220421\Firmware_true\app_prj\app_demo\Debug/../src/Bsp/Driver/hme_uart.c:655
}
   1295c:	00000013          	nop
   12960:	01c12083          	lw	ra,28(sp)
   12964:	01812403          	lw	s0,24(sp)
   12968:	02010113          	addi	sp,sp,32
   1296c:	00008067          	ret

00012970 <UartIntrRecvExc>:
UartIntrRecvExc():
D:\CreateIC\01_CPIPC\riscv\RISCV_ENC_20220421\Firmware_true\app_prj\app_demo\Debug/../src/Bsp/Driver/hme_uart.c:671
 * @brief  UART中断接收
 * @param  pstUartObj：UART控制器对象
 * @retval 无
 *****************************************************************/
void UartIntrRecvExc(PST_UART_ATTR pstUartObj)
{
   12970:	fd010113          	addi	sp,sp,-48
   12974:	02112623          	sw	ra,44(sp)
   12978:	02812423          	sw	s0,40(sp)
   1297c:	03010413          	addi	s0,sp,48
   12980:	fca42e23          	sw	a0,-36(s0)
D:\CreateIC\01_CPIPC\riscv\RISCV_ENC_20220421\Firmware_true\app_prj\app_demo\Debug/../src/Bsp/Driver/hme_uart.c:672
	assert_param(NULL != pstUartObj);
   12984:	fdc42783          	lw	a5,-36(s0)
   12988:	00079a63          	bnez	a5,1299c <UartIntrRecvExc+0x2c>
D:\CreateIC\01_CPIPC\riscv\RISCV_ENC_20220421\Firmware_true\app_prj\app_demo\Debug/../src/Bsp/Driver/hme_uart.c:672 (discriminator 1)
   1298c:	2a000593          	li	a1,672
   12990:	000157b7          	lui	a5,0x15
   12994:	17878513          	addi	a0,a5,376 # 15178 <__init_array_end+0xb4>
   12998:	241000ef          	jal	ra,133d8 <assert_failed>
D:\CreateIC\01_CPIPC\riscv\RISCV_ENC_20220421\Firmware_true\app_prj\app_demo\Debug/../src/Bsp/Driver/hme_uart.c:673
	assert_param(NULL != pstUartObj->pstCtrller);
   1299c:	fdc42783          	lw	a5,-36(s0)
   129a0:	0207a783          	lw	a5,32(a5)
   129a4:	00079a63          	bnez	a5,129b8 <UartIntrRecvExc+0x48>
D:\CreateIC\01_CPIPC\riscv\RISCV_ENC_20220421\Firmware_true\app_prj\app_demo\Debug/../src/Bsp/Driver/hme_uart.c:673 (discriminator 1)
   129a8:	2a100593          	li	a1,673
   129ac:	000157b7          	lui	a5,0x15
   129b0:	17878513          	addi	a0,a5,376 # 15178 <__init_array_end+0xb4>
   129b4:	225000ef          	jal	ra,133d8 <assert_failed>
D:\CreateIC\01_CPIPC\riscv\RISCV_ENC_20220421\Firmware_true\app_prj\app_demo\Debug/../src/Bsp/Driver/hme_uart.c:674
	assert_param(NULL != pstUartObj->pucRecvBuf);
   129b8:	fdc42783          	lw	a5,-36(s0)
   129bc:	0087a783          	lw	a5,8(a5)
   129c0:	00079a63          	bnez	a5,129d4 <UartIntrRecvExc+0x64>
D:\CreateIC\01_CPIPC\riscv\RISCV_ENC_20220421\Firmware_true\app_prj\app_demo\Debug/../src/Bsp/Driver/hme_uart.c:674 (discriminator 1)
   129c4:	2a200593          	li	a1,674
   129c8:	000157b7          	lui	a5,0x15
   129cc:	17878513          	addi	a0,a5,376 # 15178 <__init_array_end+0xb4>
   129d0:	209000ef          	jal	ra,133d8 <assert_failed>
D:\CreateIC\01_CPIPC\riscv\RISCV_ENC_20220421\Firmware_true\app_prj\app_demo\Debug/../src/Bsp/Driver/hme_uart.c:676

	uint8_t ucLineState = 0;
   129d4:	fe0405a3          	sb	zero,-21(s0)
D:\CreateIC\01_CPIPC\riscv\RISCV_ENC_20220421\Firmware_true\app_prj\app_demo\Debug/../src/Bsp/Driver/hme_uart.c:677
	uint8_t* pucRecvBuf = pstUartObj->pucRecvBuf;
   129d8:	fdc42783          	lw	a5,-36(s0)
   129dc:	0087a783          	lw	a5,8(a5)
   129e0:	fef42223          	sw	a5,-28(s0)
D:\CreateIC\01_CPIPC\riscv\RISCV_ENC_20220421\Firmware_true\app_prj\app_demo\Debug/../src/Bsp/Driver/hme_uart.c:679

	ucLineState =  UartLineStatusGet(pstUartObj);
   129e4:	fdc42503          	lw	a0,-36(s0)
   129e8:	af9ff0ef          	jal	ra,124e0 <UartLineStatusGet>
   129ec:	00050793          	mv	a5,a0
   129f0:	fef405a3          	sb	a5,-21(s0)
D:\CreateIC\01_CPIPC\riscv\RISCV_ENC_20220421\Firmware_true\app_prj\app_demo\Debug/../src/Bsp/Driver/hme_uart.c:681

	if ((ucLineState & UART_LINE_STATE_DR) == UART_LINE_STATE_DR)
   129f4:	feb44783          	lbu	a5,-21(s0)
   129f8:	0017f793          	andi	a5,a5,1
   129fc:	1c078063          	beqz	a5,12bbc <UartIntrRecvExc+0x24c>
D:\CreateIC\01_CPIPC\riscv\RISCV_ENC_20220421\Firmware_true\app_prj\app_demo\Debug/../src/Bsp/Driver/hme_uart.c:683
	{
		if(!wr_flag && !rd_flag){
   12a00:	000157b7          	lui	a5,0x15
   12a04:	5747c783          	lbu	a5,1396(a5) # 15574 <wr_flag>
   12a08:	0a079263          	bnez	a5,12aac <UartIntrRecvExc+0x13c>
D:\CreateIC\01_CPIPC\riscv\RISCV_ENC_20220421\Firmware_true\app_prj\app_demo\Debug/../src/Bsp/Driver/hme_uart.c:683 (discriminator 1)
   12a0c:	000157b7          	lui	a5,0x15
   12a10:	5757c783          	lbu	a5,1397(a5) # 15575 <rd_flag>
   12a14:	08079c63          	bnez	a5,12aac <UartIntrRecvExc+0x13c>
D:\CreateIC\01_CPIPC\riscv\RISCV_ENC_20220421\Firmware_true\app_prj\app_demo\Debug/../src/Bsp/Driver/hme_uart.c:684
			if (pstUartObj->usRecvBytesCnt < pstUartObj->usRecvDataSize)
   12a18:	fdc42783          	lw	a5,-36(s0)
   12a1c:	0127d703          	lhu	a4,18(a5)
   12a20:	fdc42783          	lw	a5,-36(s0)
   12a24:	00e7d783          	lhu	a5,14(a5)
   12a28:	06f77a63          	bgeu	a4,a5,12a9c <UartIntrRecvExc+0x12c>
D:\CreateIC\01_CPIPC\riscv\RISCV_ENC_20220421\Firmware_true\app_prj\app_demo\Debug/../src/Bsp/Driver/hme_uart.c:686
			{
			    pucRecvBuf[pstUartObj->usRecvBytesCnt] = pstUartObj->pstCtrller->RBR;
   12a2c:	fdc42783          	lw	a5,-36(s0)
   12a30:	0207a783          	lw	a5,32(a5)
   12a34:	0207a703          	lw	a4,32(a5)
   12a38:	fdc42783          	lw	a5,-36(s0)
   12a3c:	0127d783          	lhu	a5,18(a5)
   12a40:	00078693          	mv	a3,a5
   12a44:	fe442783          	lw	a5,-28(s0)
   12a48:	00d787b3          	add	a5,a5,a3
   12a4c:	0ff77713          	andi	a4,a4,255
   12a50:	00e78023          	sb	a4,0(a5)
D:\CreateIC\01_CPIPC\riscv\RISCV_ENC_20220421\Firmware_true\app_prj\app_demo\Debug/../src/Bsp/Driver/hme_uart.c:687
			    printf("received data: %d\r", pucRecvBuf[pstUartObj->usRecvBytesCnt]);
   12a54:	fdc42783          	lw	a5,-36(s0)
   12a58:	0127d783          	lhu	a5,18(a5)
   12a5c:	00078713          	mv	a4,a5
   12a60:	fe442783          	lw	a5,-28(s0)
   12a64:	00e787b3          	add	a5,a5,a4
   12a68:	0007c783          	lbu	a5,0(a5)
   12a6c:	00078593          	mv	a1,a5
   12a70:	000157b7          	lui	a5,0x15
   12a74:	19878513          	addi	a0,a5,408 # 15198 <__init_array_end+0xd4>
   12a78:	29c010ef          	jal	ra,13d14 <iprintf>
D:\CreateIC\01_CPIPC\riscv\RISCV_ENC_20220421\Firmware_true\app_prj\app_demo\Debug/../src/Bsp/Driver/hme_uart.c:688
			    pstUartObj->usRecvBytesCnt++;
   12a7c:	fdc42783          	lw	a5,-36(s0)
   12a80:	0127d783          	lhu	a5,18(a5)
   12a84:	00178793          	addi	a5,a5,1
   12a88:	01079713          	slli	a4,a5,0x10
   12a8c:	01075713          	srli	a4,a4,0x10
   12a90:	fdc42783          	lw	a5,-36(s0)
   12a94:	00e79923          	sh	a4,18(a5)
D:\CreateIC\01_CPIPC\riscv\RISCV_ENC_20220421\Firmware_true\app_prj\app_demo\Debug/../src/Bsp/Driver/hme_uart.c:684
			if (pstUartObj->usRecvBytesCnt < pstUartObj->usRecvDataSize)
   12a98:	1240006f          	j	12bbc <UartIntrRecvExc+0x24c>
D:\CreateIC\01_CPIPC\riscv\RISCV_ENC_20220421\Firmware_true\app_prj\app_demo\Debug/../src/Bsp/Driver/hme_uart.c:692
			}
			else
			{
				pstUartObj->pstCtrller->RBR;
   12a9c:	fdc42783          	lw	a5,-36(s0)
   12aa0:	0207a783          	lw	a5,32(a5)
   12aa4:	0207a783          	lw	a5,32(a5)
D:\CreateIC\01_CPIPC\riscv\RISCV_ENC_20220421\Firmware_true\app_prj\app_demo\Debug/../src/Bsp/Driver/hme_uart.c:684
			if (pstUartObj->usRecvBytesCnt < pstUartObj->usRecvDataSize)
   12aa8:	1140006f          	j	12bbc <UartIntrRecvExc+0x24c>
D:\CreateIC\01_CPIPC\riscv\RISCV_ENC_20220421\Firmware_true\app_prj\app_demo\Debug/../src/Bsp/Driver/hme_uart.c:696
			}
		}
		else{
			if(wr_flag){
   12aac:	000157b7          	lui	a5,0x15
   12ab0:	5747c783          	lbu	a5,1396(a5) # 15574 <wr_flag>
   12ab4:	08078063          	beqz	a5,12b34 <UartIntrRecvExc+0x1c4>
D:\CreateIC\01_CPIPC\riscv\RISCV_ENC_20220421\Firmware_true\app_prj\app_demo\Debug/../src/Bsp/Driver/hme_uart.c:697
			    uint8_t data = pstUartObj->pstCtrller->RBR;
   12ab8:	fdc42783          	lw	a5,-36(s0)
   12abc:	0207a783          	lw	a5,32(a5)
   12ac0:	0207a783          	lw	a5,32(a5)
   12ac4:	fef401a3          	sb	a5,-29(s0)
D:\CreateIC\01_CPIPC\riscv\RISCV_ENC_20220421\Firmware_true\app_prj\app_demo\Debug/../src/Bsp/Driver/hme_uart.c:698
			    printf("[WRITE] imgAddr: %d, data: %d\n", imgAddr, data);
   12ac8:	000157b7          	lui	a5,0x15
   12acc:	55c7a783          	lw	a5,1372(a5) # 1555c <imgAddr>
   12ad0:	fe344703          	lbu	a4,-29(s0)
   12ad4:	00070613          	mv	a2,a4
   12ad8:	00078593          	mv	a1,a5
   12adc:	000157b7          	lui	a5,0x15
   12ae0:	1ac78513          	addi	a0,a5,428 # 151ac <__init_array_end+0xe8>
   12ae4:	230010ef          	jal	ra,13d14 <iprintf>
D:\CreateIC\01_CPIPC\riscv\RISCV_ENC_20220421\Firmware_true\app_prj\app_demo\Debug/../src/Bsp/Driver/hme_uart.c:699
			    WriteReg8(imgAddr, data);
   12ae8:	000157b7          	lui	a5,0x15
   12aec:	55c7a783          	lw	a5,1372(a5) # 1555c <imgAddr>
   12af0:	fe344703          	lbu	a4,-29(s0)
   12af4:	00e78023          	sb	a4,0(a5)
D:\CreateIC\01_CPIPC\riscv\RISCV_ENC_20220421\Firmware_true\app_prj\app_demo\Debug/../src/Bsp/Driver/hme_uart.c:700
			    imgAddr++;
   12af8:	000157b7          	lui	a5,0x15
   12afc:	55c7a783          	lw	a5,1372(a5) # 1555c <imgAddr>
   12b00:	00178713          	addi	a4,a5,1
   12b04:	000157b7          	lui	a5,0x15
   12b08:	54e7ae23          	sw	a4,1372(a5) # 1555c <imgAddr>
D:\CreateIC\01_CPIPC\riscv\RISCV_ENC_20220421\Firmware_true\app_prj\app_demo\Debug/../src/Bsp/Driver/hme_uart.c:702

			    if(imgAddr >= (uint8_t*)IMG_ADDR_RX + IMG_SIZE){
   12b0c:	000157b7          	lui	a5,0x15
   12b10:	55c7a703          	lw	a4,1372(a5) # 1555c <imgAddr>
   12b14:	003407b7          	lui	a5,0x340
   12b18:	0af76263          	bltu	a4,a5,12bbc <UartIntrRecvExc+0x24c>
D:\CreateIC\01_CPIPC\riscv\RISCV_ENC_20220421\Firmware_true\app_prj\app_demo\Debug/../src/Bsp/Driver/hme_uart.c:703
			    	wr_flag = 0;
   12b1c:	000157b7          	lui	a5,0x15
   12b20:	56078a23          	sb	zero,1396(a5) # 15574 <wr_flag>
D:\CreateIC\01_CPIPC\riscv\RISCV_ENC_20220421\Firmware_true\app_prj\app_demo\Debug/../src/Bsp/Driver/hme_uart.c:704
			    	imgAddr = (uint8_t*)IMG_ADDR_RX;
   12b24:	000157b7          	lui	a5,0x15
   12b28:	00300737          	lui	a4,0x300
   12b2c:	54e7ae23          	sw	a4,1372(a5) # 1555c <imgAddr>
D:\CreateIC\01_CPIPC\riscv\RISCV_ENC_20220421\Firmware_true\app_prj\app_demo\Debug/../src/Bsp/Driver/hme_uart.c:720
				imgAddrRd = (uint8_t*)IMG_ADDR_RX;
			}
		}
	}

}
   12b30:	08c0006f          	j	12bbc <UartIntrRecvExc+0x24c>
D:\CreateIC\01_CPIPC\riscv\RISCV_ENC_20220421\Firmware_true\app_prj\app_demo\Debug/../src/Bsp/Driver/hme_uart.c:708
			else if (rd_flag){
   12b34:	000157b7          	lui	a5,0x15
   12b38:	5757c783          	lbu	a5,1397(a5) # 15575 <rd_flag>
   12b3c:	08078063          	beqz	a5,12bbc <UartIntrRecvExc+0x24c>
D:\CreateIC\01_CPIPC\riscv\RISCV_ENC_20220421\Firmware_true\app_prj\app_demo\Debug/../src/Bsp/Driver/hme_uart.c:709
				for(int i=0; i<IMG_SIZE; i++){
   12b40:	fe042623          	sw	zero,-20(s0)
   12b44:	0540006f          	j	12b98 <UartIntrRecvExc+0x228>
D:\CreateIC\01_CPIPC\riscv\RISCV_ENC_20220421\Firmware_true\app_prj\app_demo\Debug/../src/Bsp/Driver/hme_uart.c:710 (discriminator 3)
				    uint8_t data = ReadReg8(imgAddrRd);
   12b48:	000157b7          	lui	a5,0x15
   12b4c:	5607a783          	lw	a5,1376(a5) # 15560 <imgAddrRd>
   12b50:	0007c783          	lbu	a5,0(a5)
   12b54:	fef40123          	sb	a5,-30(s0)
D:\CreateIC\01_CPIPC\riscv\RISCV_ENC_20220421\Firmware_true\app_prj\app_demo\Debug/../src/Bsp/Driver/hme_uart.c:711 (discriminator 3)
				    printf("[READ] imgAddrRd: %d, data: %d\n", imgAddrRd, data);
   12b58:	000157b7          	lui	a5,0x15
   12b5c:	5607a783          	lw	a5,1376(a5) # 15560 <imgAddrRd>
   12b60:	fe244703          	lbu	a4,-30(s0)
   12b64:	00070613          	mv	a2,a4
   12b68:	00078593          	mv	a1,a5
   12b6c:	000157b7          	lui	a5,0x15
   12b70:	1cc78513          	addi	a0,a5,460 # 151cc <__init_array_end+0x108>
   12b74:	1a0010ef          	jal	ra,13d14 <iprintf>
D:\CreateIC\01_CPIPC\riscv\RISCV_ENC_20220421\Firmware_true\app_prj\app_demo\Debug/../src/Bsp/Driver/hme_uart.c:712 (discriminator 3)
				    imgAddrRd++;
   12b78:	000157b7          	lui	a5,0x15
   12b7c:	5607a783          	lw	a5,1376(a5) # 15560 <imgAddrRd>
   12b80:	00178713          	addi	a4,a5,1
   12b84:	000157b7          	lui	a5,0x15
   12b88:	56e7a023          	sw	a4,1376(a5) # 15560 <imgAddrRd>
D:\CreateIC\01_CPIPC\riscv\RISCV_ENC_20220421\Firmware_true\app_prj\app_demo\Debug/../src/Bsp/Driver/hme_uart.c:709 (discriminator 3)
				for(int i=0; i<IMG_SIZE; i++){
   12b8c:	fec42783          	lw	a5,-20(s0)
   12b90:	00178793          	addi	a5,a5,1
   12b94:	fef42623          	sw	a5,-20(s0)
D:\CreateIC\01_CPIPC\riscv\RISCV_ENC_20220421\Firmware_true\app_prj\app_demo\Debug/../src/Bsp/Driver/hme_uart.c:709 (discriminator 1)
   12b98:	fec42703          	lw	a4,-20(s0)
   12b9c:	000407b7          	lui	a5,0x40
   12ba0:	faf744e3          	blt	a4,a5,12b48 <UartIntrRecvExc+0x1d8>
D:\CreateIC\01_CPIPC\riscv\RISCV_ENC_20220421\Firmware_true\app_prj\app_demo\Debug/../src/Bsp/Driver/hme_uart.c:714
				rd_flag = 0;
   12ba4:	000157b7          	lui	a5,0x15
   12ba8:	56078aa3          	sb	zero,1397(a5) # 15575 <rd_flag>
D:\CreateIC\01_CPIPC\riscv\RISCV_ENC_20220421\Firmware_true\app_prj\app_demo\Debug/../src/Bsp/Driver/hme_uart.c:715
				imgAddrRd = (uint8_t*)IMG_ADDR_RX;
   12bac:	000157b7          	lui	a5,0x15
   12bb0:	00300737          	lui	a4,0x300
   12bb4:	56e7a023          	sw	a4,1376(a5) # 15560 <imgAddrRd>
D:\CreateIC\01_CPIPC\riscv\RISCV_ENC_20220421\Firmware_true\app_prj\app_demo\Debug/../src/Bsp/Driver/hme_uart.c:720
}
   12bb8:	0040006f          	j	12bbc <UartIntrRecvExc+0x24c>
   12bbc:	00000013          	nop
   12bc0:	02c12083          	lw	ra,44(sp)
   12bc4:	02812403          	lw	s0,40(sp)
   12bc8:	03010113          	addi	sp,sp,48
   12bcc:	00008067          	ret

00012bd0 <UartIntrRecvTimeOut>:
UartIntrRecvTimeOut():
D:\CreateIC\01_CPIPC\riscv\RISCV_ENC_20220421\Firmware_true\app_prj\app_demo\Debug/../src/Bsp/Driver/hme_uart.c:729
 * @param  pstUartObj：UART控制器对象
 * @retval 无
 * 注意：该接口预留，只作为测试处理
 *****************************************************************/
void UartIntrRecvTimeOut(PST_UART_ATTR pstUartObj)
{
   12bd0:	fe010113          	addi	sp,sp,-32
   12bd4:	00112e23          	sw	ra,28(sp)
   12bd8:	00812c23          	sw	s0,24(sp)
   12bdc:	02010413          	addi	s0,sp,32
   12be0:	fea42623          	sw	a0,-20(s0)
D:\CreateIC\01_CPIPC\riscv\RISCV_ENC_20220421\Firmware_true\app_prj\app_demo\Debug/../src/Bsp/Driver/hme_uart.c:730
	assert_param(NULL != pstUartObj);
   12be4:	fec42783          	lw	a5,-20(s0)
   12be8:	00079a63          	bnez	a5,12bfc <UartIntrRecvTimeOut+0x2c>
D:\CreateIC\01_CPIPC\riscv\RISCV_ENC_20220421\Firmware_true\app_prj\app_demo\Debug/../src/Bsp/Driver/hme_uart.c:730 (discriminator 1)
   12bec:	2da00593          	li	a1,730
   12bf0:	000157b7          	lui	a5,0x15
   12bf4:	17878513          	addi	a0,a5,376 # 15178 <__init_array_end+0xb4>
   12bf8:	7e0000ef          	jal	ra,133d8 <assert_failed>
D:\CreateIC\01_CPIPC\riscv\RISCV_ENC_20220421\Firmware_true\app_prj\app_demo\Debug/../src/Bsp/Driver/hme_uart.c:731
	assert_param(NULL != pstUartObj->pstCtrller);
   12bfc:	fec42783          	lw	a5,-20(s0)
   12c00:	0207a783          	lw	a5,32(a5)
   12c04:	00079a63          	bnez	a5,12c18 <UartIntrRecvTimeOut+0x48>
D:\CreateIC\01_CPIPC\riscv\RISCV_ENC_20220421\Firmware_true\app_prj\app_demo\Debug/../src/Bsp/Driver/hme_uart.c:731 (discriminator 1)
   12c08:	2db00593          	li	a1,731
   12c0c:	000157b7          	lui	a5,0x15
   12c10:	17878513          	addi	a0,a5,376 # 15178 <__init_array_end+0xb4>
   12c14:	7c4000ef          	jal	ra,133d8 <assert_failed>
D:\CreateIC\01_CPIPC\riscv\RISCV_ENC_20220421\Firmware_true\app_prj\app_demo\Debug/../src/Bsp/Driver/hme_uart.c:732
	pstUartObj->pstCtrller->RBR;
   12c18:	fec42783          	lw	a5,-20(s0)
   12c1c:	0207a783          	lw	a5,32(a5)
   12c20:	0207a783          	lw	a5,32(a5)
D:\CreateIC\01_CPIPC\riscv\RISCV_ENC_20220421\Firmware_true\app_prj\app_demo\Debug/../src/Bsp/Driver/hme_uart.c:733
}
   12c24:	00000013          	nop
   12c28:	01c12083          	lw	ra,28(sp)
   12c2c:	01812403          	lw	s0,24(sp)
   12c30:	02010113          	addi	sp,sp,32
   12c34:	00008067          	ret

00012c38 <UartIntrSendExc>:
UartIntrSendExc():
D:\CreateIC\01_CPIPC\riscv\RISCV_ENC_20220421\Firmware_true\app_prj\app_demo\Debug/../src/Bsp/Driver/hme_uart.c:742
 * @param  pstUartObj：UART控制器对象
 * @retval 无
 * 注意：该接口预留，只作为测试处理
 *****************************************************************/
void UartIntrSendExc(PST_UART_ATTR pstUartObj)
{
   12c38:	fe010113          	addi	sp,sp,-32
   12c3c:	00112e23          	sw	ra,28(sp)
   12c40:	00812c23          	sw	s0,24(sp)
   12c44:	02010413          	addi	s0,sp,32
   12c48:	fea42623          	sw	a0,-20(s0)
D:\CreateIC\01_CPIPC\riscv\RISCV_ENC_20220421\Firmware_true\app_prj\app_demo\Debug/../src/Bsp/Driver/hme_uart.c:743
	UartIntrIDGet(pstUartObj);
   12c4c:	fec42503          	lw	a0,-20(s0)
   12c50:	b81ff0ef          	jal	ra,127d0 <UartIntrIDGet>
D:\CreateIC\01_CPIPC\riscv\RISCV_ENC_20220421\Firmware_true\app_prj\app_demo\Debug/../src/Bsp/Driver/hme_uart.c:744
}
   12c54:	00000013          	nop
   12c58:	01c12083          	lw	ra,28(sp)
   12c5c:	01812403          	lw	s0,24(sp)
   12c60:	02010113          	addi	sp,sp,32
   12c64:	00008067          	ret

00012c68 <UartIntrModemExc>:
UartIntrModemExc():
D:\CreateIC\01_CPIPC\riscv\RISCV_ENC_20220421\Firmware_true\app_prj\app_demo\Debug/../src/Bsp/Driver/hme_uart.c:753
 * @param  pstUartObj：UART控制器对象
 * @retval 无
 * 注意：该接口预留，只作为测试处理
 *****************************************************************/
void UartIntrModemExc(PST_UART_ATTR pstUartObj)
{
   12c68:	fe010113          	addi	sp,sp,-32
   12c6c:	00112e23          	sw	ra,28(sp)
   12c70:	00812c23          	sw	s0,24(sp)
   12c74:	02010413          	addi	s0,sp,32
   12c78:	fea42623          	sw	a0,-20(s0)
D:\CreateIC\01_CPIPC\riscv\RISCV_ENC_20220421\Firmware_true\app_prj\app_demo\Debug/../src/Bsp/Driver/hme_uart.c:754
	UartModemStatusGet(pstUartObj);
   12c7c:	fec42503          	lw	a0,-20(s0)
   12c80:	945ff0ef          	jal	ra,125c4 <UartModemStatusGet>
D:\CreateIC\01_CPIPC\riscv\RISCV_ENC_20220421\Firmware_true\app_prj\app_demo\Debug/../src/Bsp/Driver/hme_uart.c:755
}
   12c84:	00000013          	nop
   12c88:	01c12083          	lw	ra,28(sp)
   12c8c:	01812403          	lw	s0,24(sp)
   12c90:	02010113          	addi	sp,sp,32
   12c94:	00008067          	ret

00012c98 <DelayUs>:
DelayUs():
D:\CreateIC\01_CPIPC\riscv\RISCV_ENC_20220421\Firmware_true\app_prj\app_demo\Debug/../src/Bsp/Driver/system.c:30
		ulWaitCnt--;
	}
}

void DelayUs (uint32_t ulDelayUs)
{
   12c98:	fd010113          	addi	sp,sp,-48
   12c9c:	02812623          	sw	s0,44(sp)
   12ca0:	03010413          	addi	s0,sp,48
   12ca4:	fca42e23          	sw	a0,-36(s0)
D:\CreateIC\01_CPIPC\riscv\RISCV_ENC_20220421\Firmware_true\app_prj\app_demo\Debug/../src/Bsp/Driver/system.c:31
	uint32_t ulWaitCnt = (ulDelayUs * 1000) / (CLK_CYC * 20);
   12ca8:	fdc42703          	lw	a4,-36(s0)
   12cac:	3e800793          	li	a5,1000
   12cb0:	02f70733          	mul	a4,a4,a5
   12cb4:	0f000793          	li	a5,240
   12cb8:	02f757b3          	divu	a5,a4,a5
   12cbc:	fef42623          	sw	a5,-20(s0)
D:\CreateIC\01_CPIPC\riscv\RISCV_ENC_20220421\Firmware_true\app_prj\app_demo\Debug/../src/Bsp/Driver/system.c:32
	while (ulWaitCnt > 0)
   12cc0:	0100006f          	j	12cd0 <DelayUs+0x38>
D:\CreateIC\01_CPIPC\riscv\RISCV_ENC_20220421\Firmware_true\app_prj\app_demo\Debug/../src/Bsp/Driver/system.c:34
	{
		ulWaitCnt--;
   12cc4:	fec42783          	lw	a5,-20(s0)
   12cc8:	fff78793          	addi	a5,a5,-1
   12ccc:	fef42623          	sw	a5,-20(s0)
D:\CreateIC\01_CPIPC\riscv\RISCV_ENC_20220421\Firmware_true\app_prj\app_demo\Debug/../src/Bsp/Driver/system.c:32
	while (ulWaitCnt > 0)
   12cd0:	fec42783          	lw	a5,-20(s0)
   12cd4:	fe0798e3          	bnez	a5,12cc4 <DelayUs+0x2c>
D:\CreateIC\01_CPIPC\riscv\RISCV_ENC_20220421\Firmware_true\app_prj\app_demo\Debug/../src/Bsp/Driver/system.c:36
	}
}
   12cd8:	00000013          	nop
   12cdc:	02c12403          	lw	s0,44(sp)
   12ce0:	03010113          	addi	sp,sp,48
   12ce4:	00008067          	ret

00012ce8 <trap_entry>:
trap_entry():
D:\CreateIC\01_CPIPC\riscv\HME_RISCV_DEMO\VexRiscv_Prj\Firmware\app_prj\app_demo\Debug/../src/Bsp/Core/trap.S:4
.global  trap_entry
.align(2) //mtvec require 32 bits allignement
trap_entry:
  addi sp,sp, -32*4
   12ce8:	f8010113          	addi	sp,sp,-128
D:\CreateIC\01_CPIPC\riscv\HME_RISCV_DEMO\VexRiscv_Prj\Firmware\app_prj\app_demo\Debug/../src/Bsp/Core/trap.S:5
  sw     ra,   0 * 4(sp)
   12cec:	00112023          	sw	ra,0(sp)
D:\CreateIC\01_CPIPC\riscv\HME_RISCV_DEMO\VexRiscv_Prj\Firmware\app_prj\app_demo\Debug/../src/Bsp/Core/trap.S:6
  sw     t0,   4 * 4(sp)
   12cf0:	00512823          	sw	t0,16(sp)
D:\CreateIC\01_CPIPC\riscv\HME_RISCV_DEMO\VexRiscv_Prj\Firmware\app_prj\app_demo\Debug/../src/Bsp/Core/trap.S:7
  sw     t1,   5 * 4(sp)
   12cf4:	00612a23          	sw	t1,20(sp)
D:\CreateIC\01_CPIPC\riscv\HME_RISCV_DEMO\VexRiscv_Prj\Firmware\app_prj\app_demo\Debug/../src/Bsp/Core/trap.S:8
  sw     t2,   6 * 4(sp)
   12cf8:	00712c23          	sw	t2,24(sp)
D:\CreateIC\01_CPIPC\riscv\HME_RISCV_DEMO\VexRiscv_Prj\Firmware\app_prj\app_demo\Debug/../src/Bsp/Core/trap.S:9
  sw     s0,   7 * 4(sp)
   12cfc:	00812e23          	sw	s0,28(sp)
D:\CreateIC\01_CPIPC\riscv\HME_RISCV_DEMO\VexRiscv_Prj\Firmware\app_prj\app_demo\Debug/../src/Bsp/Core/trap.S:10
  sw     s1,   8 * 4(sp)
   12d00:	02912023          	sw	s1,32(sp)
D:\CreateIC\01_CPIPC\riscv\HME_RISCV_DEMO\VexRiscv_Prj\Firmware\app_prj\app_demo\Debug/../src/Bsp/Core/trap.S:11
  sw     a0,   9 * 4(sp)
   12d04:	02a12223          	sw	a0,36(sp)
D:\CreateIC\01_CPIPC\riscv\HME_RISCV_DEMO\VexRiscv_Prj\Firmware\app_prj\app_demo\Debug/../src/Bsp/Core/trap.S:12
  sw     a1,  10 * 4(sp)
   12d08:	02b12423          	sw	a1,40(sp)
D:\CreateIC\01_CPIPC\riscv\HME_RISCV_DEMO\VexRiscv_Prj\Firmware\app_prj\app_demo\Debug/../src/Bsp/Core/trap.S:13
  sw     a2,  11 * 4(sp)
   12d0c:	02c12623          	sw	a2,44(sp)
D:\CreateIC\01_CPIPC\riscv\HME_RISCV_DEMO\VexRiscv_Prj\Firmware\app_prj\app_demo\Debug/../src/Bsp/Core/trap.S:14
  sw     a3,  12 * 4(sp)
   12d10:	02d12823          	sw	a3,48(sp)
D:\CreateIC\01_CPIPC\riscv\HME_RISCV_DEMO\VexRiscv_Prj\Firmware\app_prj\app_demo\Debug/../src/Bsp/Core/trap.S:15
  sw     a4,  13 * 4(sp)
   12d14:	02e12a23          	sw	a4,52(sp)
D:\CreateIC\01_CPIPC\riscv\HME_RISCV_DEMO\VexRiscv_Prj\Firmware\app_prj\app_demo\Debug/../src/Bsp/Core/trap.S:16
  sw     a5,  14 * 4(sp)
   12d18:	02f12c23          	sw	a5,56(sp)
D:\CreateIC\01_CPIPC\riscv\HME_RISCV_DEMO\VexRiscv_Prj\Firmware\app_prj\app_demo\Debug/../src/Bsp/Core/trap.S:17
  sw     a6,  15 * 4(sp)
   12d1c:	03012e23          	sw	a6,60(sp)
D:\CreateIC\01_CPIPC\riscv\HME_RISCV_DEMO\VexRiscv_Prj\Firmware\app_prj\app_demo\Debug/../src/Bsp/Core/trap.S:18
  sw     a7,  16 * 4(sp)
   12d20:	05112023          	sw	a7,64(sp)
D:\CreateIC\01_CPIPC\riscv\HME_RISCV_DEMO\VexRiscv_Prj\Firmware\app_prj\app_demo\Debug/../src/Bsp/Core/trap.S:19
  sw     s2,  17 * 4(sp)
   12d24:	05212223          	sw	s2,68(sp)
D:\CreateIC\01_CPIPC\riscv\HME_RISCV_DEMO\VexRiscv_Prj\Firmware\app_prj\app_demo\Debug/../src/Bsp/Core/trap.S:20
  sw     s3,  18 * 4(sp)
   12d28:	05312423          	sw	s3,72(sp)
D:\CreateIC\01_CPIPC\riscv\HME_RISCV_DEMO\VexRiscv_Prj\Firmware\app_prj\app_demo\Debug/../src/Bsp/Core/trap.S:21
  sw     s4,  19 * 4(sp)
   12d2c:	05412623          	sw	s4,76(sp)
D:\CreateIC\01_CPIPC\riscv\HME_RISCV_DEMO\VexRiscv_Prj\Firmware\app_prj\app_demo\Debug/../src/Bsp/Core/trap.S:22
  sw     s5,  20 * 4(sp)
   12d30:	05512823          	sw	s5,80(sp)
D:\CreateIC\01_CPIPC\riscv\HME_RISCV_DEMO\VexRiscv_Prj\Firmware\app_prj\app_demo\Debug/../src/Bsp/Core/trap.S:23
  sw     s6,  21 * 4(sp)
   12d34:	05612a23          	sw	s6,84(sp)
D:\CreateIC\01_CPIPC\riscv\HME_RISCV_DEMO\VexRiscv_Prj\Firmware\app_prj\app_demo\Debug/../src/Bsp/Core/trap.S:24
  sw     s7,  22 * 4(sp)
   12d38:	05712c23          	sw	s7,88(sp)
D:\CreateIC\01_CPIPC\riscv\HME_RISCV_DEMO\VexRiscv_Prj\Firmware\app_prj\app_demo\Debug/../src/Bsp/Core/trap.S:25
  sw     s8,  23 * 4(sp)
   12d3c:	05812e23          	sw	s8,92(sp)
D:\CreateIC\01_CPIPC\riscv\HME_RISCV_DEMO\VexRiscv_Prj\Firmware\app_prj\app_demo\Debug/../src/Bsp/Core/trap.S:26
  sw     s9,  24 * 4(sp)
   12d40:	07912023          	sw	s9,96(sp)
D:\CreateIC\01_CPIPC\riscv\HME_RISCV_DEMO\VexRiscv_Prj\Firmware\app_prj\app_demo\Debug/../src/Bsp/Core/trap.S:27
  sw     s10, 25 * 4(sp)
   12d44:	07a12223          	sw	s10,100(sp)
D:\CreateIC\01_CPIPC\riscv\HME_RISCV_DEMO\VexRiscv_Prj\Firmware\app_prj\app_demo\Debug/../src/Bsp/Core/trap.S:28
  sw     s11, 26 * 4(sp)
   12d48:	07b12423          	sw	s11,104(sp)
D:\CreateIC\01_CPIPC\riscv\HME_RISCV_DEMO\VexRiscv_Prj\Firmware\app_prj\app_demo\Debug/../src/Bsp/Core/trap.S:29
  sw     t3,  27 * 4(sp)
   12d4c:	07c12623          	sw	t3,108(sp)
D:\CreateIC\01_CPIPC\riscv\HME_RISCV_DEMO\VexRiscv_Prj\Firmware\app_prj\app_demo\Debug/../src/Bsp/Core/trap.S:30
  sw     t4,  28 * 4(sp)
   12d50:	07d12823          	sw	t4,112(sp)
D:\CreateIC\01_CPIPC\riscv\HME_RISCV_DEMO\VexRiscv_Prj\Firmware\app_prj\app_demo\Debug/../src/Bsp/Core/trap.S:31
  sw     t5,  29 * 4(sp)
   12d54:	07e12a23          	sw	t5,116(sp)
D:\CreateIC\01_CPIPC\riscv\HME_RISCV_DEMO\VexRiscv_Prj\Firmware\app_prj\app_demo\Debug/../src/Bsp/Core/trap.S:32
  sw     t6,  30 * 4(sp)
   12d58:	07f12c23          	sw	t6,120(sp)
D:\CreateIC\01_CPIPC\riscv\HME_RISCV_DEMO\VexRiscv_Prj\Firmware\app_prj\app_demo\Debug/../src/Bsp/Core/trap.S:34

  csrr   a0,  mcause
   12d5c:	34202573          	csrr	a0,mcause
D:\CreateIC\01_CPIPC\riscv\HME_RISCV_DEMO\VexRiscv_Prj\Firmware\app_prj\app_demo\Debug/../src/Bsp/Core/trap.S:35
  csrr   a1,  mepc
   12d60:	341025f3          	csrr	a1,mepc
D:\CreateIC\01_CPIPC\riscv\HME_RISCV_DEMO\VexRiscv_Prj\Firmware\app_prj\app_demo\Debug/../src/Bsp/Core/trap.S:36
  mv     a2,  sp
   12d64:	00010613          	mv	a2,sp
D:\CreateIC\01_CPIPC\riscv\HME_RISCV_DEMO\VexRiscv_Prj\Firmware\app_prj\app_demo\Debug/../src/Bsp/Core/trap.S:38

  call trap
   12d68:	228000ef          	jal	ra,12f90 <trap>
D:\CreateIC\01_CPIPC\riscv\HME_RISCV_DEMO\VexRiscv_Prj\Firmware\app_prj\app_demo\Debug/../src/Bsp/Core/trap.S:40

  lw     ra,   0 * 4(sp)
   12d6c:	00012083          	lw	ra,0(sp)
D:\CreateIC\01_CPIPC\riscv\HME_RISCV_DEMO\VexRiscv_Prj\Firmware\app_prj\app_demo\Debug/../src/Bsp/Core/trap.S:41
  lw     t0,   4 * 4(sp)
   12d70:	01012283          	lw	t0,16(sp)
D:\CreateIC\01_CPIPC\riscv\HME_RISCV_DEMO\VexRiscv_Prj\Firmware\app_prj\app_demo\Debug/../src/Bsp/Core/trap.S:42
  lw     t1,   5 * 4(sp)
   12d74:	01412303          	lw	t1,20(sp)
D:\CreateIC\01_CPIPC\riscv\HME_RISCV_DEMO\VexRiscv_Prj\Firmware\app_prj\app_demo\Debug/../src/Bsp/Core/trap.S:43
  lw     t2,   6 * 4(sp)
   12d78:	01812383          	lw	t2,24(sp)
D:\CreateIC\01_CPIPC\riscv\HME_RISCV_DEMO\VexRiscv_Prj\Firmware\app_prj\app_demo\Debug/../src/Bsp/Core/trap.S:44
  lw     s0,   7 * 4(sp)
   12d7c:	01c12403          	lw	s0,28(sp)
D:\CreateIC\01_CPIPC\riscv\HME_RISCV_DEMO\VexRiscv_Prj\Firmware\app_prj\app_demo\Debug/../src/Bsp/Core/trap.S:45
  lw     s1,   8 * 4(sp)
   12d80:	02012483          	lw	s1,32(sp)
D:\CreateIC\01_CPIPC\riscv\HME_RISCV_DEMO\VexRiscv_Prj\Firmware\app_prj\app_demo\Debug/../src/Bsp/Core/trap.S:46
  lw     a0,   9 * 4(sp)
   12d84:	02412503          	lw	a0,36(sp)
D:\CreateIC\01_CPIPC\riscv\HME_RISCV_DEMO\VexRiscv_Prj\Firmware\app_prj\app_demo\Debug/../src/Bsp/Core/trap.S:47
  lw     a1,  10 * 4(sp)
   12d88:	02812583          	lw	a1,40(sp)
D:\CreateIC\01_CPIPC\riscv\HME_RISCV_DEMO\VexRiscv_Prj\Firmware\app_prj\app_demo\Debug/../src/Bsp/Core/trap.S:48
  lw     a2,  11 * 4(sp)
   12d8c:	02c12603          	lw	a2,44(sp)
D:\CreateIC\01_CPIPC\riscv\HME_RISCV_DEMO\VexRiscv_Prj\Firmware\app_prj\app_demo\Debug/../src/Bsp/Core/trap.S:49
  lw     a3,  12 * 4(sp)
   12d90:	03012683          	lw	a3,48(sp)
D:\CreateIC\01_CPIPC\riscv\HME_RISCV_DEMO\VexRiscv_Prj\Firmware\app_prj\app_demo\Debug/../src/Bsp/Core/trap.S:50
  lw     a4,  13 * 4(sp)
   12d94:	03412703          	lw	a4,52(sp)
D:\CreateIC\01_CPIPC\riscv\HME_RISCV_DEMO\VexRiscv_Prj\Firmware\app_prj\app_demo\Debug/../src/Bsp/Core/trap.S:51
  lw     a5,  14 * 4(sp)
   12d98:	03812783          	lw	a5,56(sp)
D:\CreateIC\01_CPIPC\riscv\HME_RISCV_DEMO\VexRiscv_Prj\Firmware\app_prj\app_demo\Debug/../src/Bsp/Core/trap.S:52
  lw     a6,  15 * 4(sp)
   12d9c:	03c12803          	lw	a6,60(sp)
D:\CreateIC\01_CPIPC\riscv\HME_RISCV_DEMO\VexRiscv_Prj\Firmware\app_prj\app_demo\Debug/../src/Bsp/Core/trap.S:53
  lw     a7,  16 * 4(sp)
   12da0:	04012883          	lw	a7,64(sp)
D:\CreateIC\01_CPIPC\riscv\HME_RISCV_DEMO\VexRiscv_Prj\Firmware\app_prj\app_demo\Debug/../src/Bsp/Core/trap.S:54
  lw     s2,  17 * 4(sp)
   12da4:	04412903          	lw	s2,68(sp)
D:\CreateIC\01_CPIPC\riscv\HME_RISCV_DEMO\VexRiscv_Prj\Firmware\app_prj\app_demo\Debug/../src/Bsp/Core/trap.S:55
  lw     s3,  18 * 4(sp)
   12da8:	04812983          	lw	s3,72(sp)
D:\CreateIC\01_CPIPC\riscv\HME_RISCV_DEMO\VexRiscv_Prj\Firmware\app_prj\app_demo\Debug/../src/Bsp/Core/trap.S:56
  lw     s4,  19 * 4(sp)
   12dac:	04c12a03          	lw	s4,76(sp)
D:\CreateIC\01_CPIPC\riscv\HME_RISCV_DEMO\VexRiscv_Prj\Firmware\app_prj\app_demo\Debug/../src/Bsp/Core/trap.S:57
  lw     s5,  20 * 4(sp)
   12db0:	05012a83          	lw	s5,80(sp)
D:\CreateIC\01_CPIPC\riscv\HME_RISCV_DEMO\VexRiscv_Prj\Firmware\app_prj\app_demo\Debug/../src/Bsp/Core/trap.S:58
  lw     s6,  21 * 4(sp)
   12db4:	05412b03          	lw	s6,84(sp)
D:\CreateIC\01_CPIPC\riscv\HME_RISCV_DEMO\VexRiscv_Prj\Firmware\app_prj\app_demo\Debug/../src/Bsp/Core/trap.S:59
  lw     s7,  22 * 4(sp)
   12db8:	05812b83          	lw	s7,88(sp)
D:\CreateIC\01_CPIPC\riscv\HME_RISCV_DEMO\VexRiscv_Prj\Firmware\app_prj\app_demo\Debug/../src/Bsp/Core/trap.S:60
  lw     s8,  23 * 4(sp)
   12dbc:	05c12c03          	lw	s8,92(sp)
D:\CreateIC\01_CPIPC\riscv\HME_RISCV_DEMO\VexRiscv_Prj\Firmware\app_prj\app_demo\Debug/../src/Bsp/Core/trap.S:61
  lw     s9,  24 * 4(sp)
   12dc0:	06012c83          	lw	s9,96(sp)
D:\CreateIC\01_CPIPC\riscv\HME_RISCV_DEMO\VexRiscv_Prj\Firmware\app_prj\app_demo\Debug/../src/Bsp/Core/trap.S:62
  lw     s10, 25 * 4(sp)
   12dc4:	06412d03          	lw	s10,100(sp)
D:\CreateIC\01_CPIPC\riscv\HME_RISCV_DEMO\VexRiscv_Prj\Firmware\app_prj\app_demo\Debug/../src/Bsp/Core/trap.S:63
  lw     s11, 26 * 4(sp)
   12dc8:	06812d83          	lw	s11,104(sp)
D:\CreateIC\01_CPIPC\riscv\HME_RISCV_DEMO\VexRiscv_Prj\Firmware\app_prj\app_demo\Debug/../src/Bsp/Core/trap.S:64
  lw     t3,  27 * 4(sp)
   12dcc:	06c12e03          	lw	t3,108(sp)
D:\CreateIC\01_CPIPC\riscv\HME_RISCV_DEMO\VexRiscv_Prj\Firmware\app_prj\app_demo\Debug/../src/Bsp/Core/trap.S:65
  lw     t4,  28 * 4(sp)
   12dd0:	07012e83          	lw	t4,112(sp)
D:\CreateIC\01_CPIPC\riscv\HME_RISCV_DEMO\VexRiscv_Prj\Firmware\app_prj\app_demo\Debug/../src/Bsp/Core/trap.S:66
  lw     t5,  29 * 4(sp)
   12dd4:	07412f03          	lw	t5,116(sp)
D:\CreateIC\01_CPIPC\riscv\HME_RISCV_DEMO\VexRiscv_Prj\Firmware\app_prj\app_demo\Debug/../src/Bsp/Core/trap.S:67
  lw     t6,  30 * 4(sp)
   12dd8:	07812f83          	lw	t6,120(sp)
D:\CreateIC\01_CPIPC\riscv\HME_RISCV_DEMO\VexRiscv_Prj\Firmware\app_prj\app_demo\Debug/../src/Bsp/Core/trap.S:69

  addi sp,sp, 32*4
   12ddc:	08010113          	addi	sp,sp,128
D:\CreateIC\01_CPIPC\riscv\HME_RISCV_DEMO\VexRiscv_Prj\Firmware\app_prj\app_demo\Debug/../src/Bsp/Core/trap.S:70
  mret
   12de0:	30200073          	mret
D:\CreateIC\01_CPIPC\riscv\HME_RISCV_DEMO\VexRiscv_Prj\Firmware\app_prj\app_demo\Debug/../src/Bsp/Core/trap.S:75

   .weak trap
   .align(2)
trap:
 1:	j 1b
   12de4:	0000006f          	j	12de4 <trap_entry+0xfc>

00012de8 <SoftwareInterruptExcute>:
SoftwareInterruptExcute():
D:\CreateIC\01_CPIPC\riscv\RISCV_ENC_20220421\Firmware_true\app_prj\app_demo\Debug/../src/Bsp/Core/trap_handle.c:40
 * @brief  软件中断执行接口
 * @param  无
 * @retval 无
*****************************************************************/
void SoftwareInterruptExcute(uint32_t sp[])
{
   12de8:	fd010113          	addi	sp,sp,-48
   12dec:	02112623          	sw	ra,44(sp)
   12df0:	02812423          	sw	s0,40(sp)
   12df4:	03010413          	addi	s0,sp,48
   12df8:	fca42e23          	sw	a0,-36(s0)
D:\CreateIC\01_CPIPC\riscv\RISCV_ENC_20220421\Firmware_true\app_prj\app_demo\Debug/../src/Bsp/Core/trap_handle.c:43
	extern void Software_IRQHandler();

	uint32_t* pulSoftAddr = (uint32_t*)SOFT_INTR_BASE_ADDR;
   12dfc:	f80067b7          	lui	a5,0xf8006
   12e00:	fef42623          	sw	a5,-20(s0)
D:\CreateIC\01_CPIPC\riscv\RISCV_ENC_20220421\Firmware_true\app_prj\app_demo\Debug/../src/Bsp/Core/trap_handle.c:44
	*pulSoftAddr = 0;
   12e04:	fec42783          	lw	a5,-20(s0)
   12e08:	0007a023          	sw	zero,0(a5) # f8006000 <__freertos_irq_stack_top+0xf7fc7980>
D:\CreateIC\01_CPIPC\riscv\RISCV_ENC_20220421\Firmware_true\app_prj\app_demo\Debug/../src/Bsp/Core/trap_handle.c:46

     printf("Software Interrput....\n");
   12e0c:	000157b7          	lui	a5,0x15
   12e10:	22078513          	addi	a0,a5,544 # 15220 <__init_array_end+0x15c>
   12e14:	0dc010ef          	jal	ra,13ef0 <puts>
D:\CreateIC\01_CPIPC\riscv\RISCV_ENC_20220421\Firmware_true\app_prj\app_demo\Debug/../src/Bsp/Core/trap_handle.c:47
}
   12e18:	00000013          	nop
   12e1c:	02c12083          	lw	ra,44(sp)
   12e20:	02812403          	lw	s0,40(sp)
   12e24:	03010113          	addi	sp,sp,48
   12e28:	00008067          	ret

00012e2c <TimerInterruptExcute>:
TimerInterruptExcute():
D:\CreateIC\01_CPIPC\riscv\RISCV_ENC_20220421\Firmware_true\app_prj\app_demo\Debug/../src/Bsp/Core/trap_handle.c:55
 * @brief  核定时器中断执行接口
 * @param  无
 * @retval 无
*****************************************************************/
void TimerInterruptExcute()
{
   12e2c:	fc010113          	addi	sp,sp,-64
   12e30:	02112e23          	sw	ra,60(sp)
   12e34:	02812c23          	sw	s0,56(sp)
   12e38:	03212a23          	sw	s2,52(sp)
   12e3c:	03312823          	sw	s3,48(sp)
   12e40:	03412623          	sw	s4,44(sp)
   12e44:	03512423          	sw	s5,40(sp)
   12e48:	03612223          	sw	s6,36(sp)
   12e4c:	03712023          	sw	s7,32(sp)
   12e50:	04010413          	addi	s0,sp,64
D:\CreateIC\01_CPIPC\riscv\RISCV_ENC_20220421\Firmware_true\app_prj\app_demo\Debug/../src/Bsp/Core/trap_handle.c:56
	PST_MACH_TIME_RegDef pstMachTimer = DEV_MACH_TIMER;
   12e54:	f80017b7          	lui	a5,0xf8001
   12e58:	fcf42e23          	sw	a5,-36(s0)
D:\CreateIC\01_CPIPC\riscv\RISCV_ENC_20220421\Firmware_true\app_prj\app_demo\Debug/../src/Bsp/Core/trap_handle.c:58

	uint32_t ulCurTimerL = 0;
   12e5c:	fc042c23          	sw	zero,-40(s0)
D:\CreateIC\01_CPIPC\riscv\RISCV_ENC_20220421\Firmware_true\app_prj\app_demo\Debug/../src/Bsp/Core/trap_handle.c:59
	uint32_t ulCurTimerH = 0;
   12e60:	fc042a23          	sw	zero,-44(s0)
D:\CreateIC\01_CPIPC\riscv\RISCV_ENC_20220421\Firmware_true\app_prj\app_demo\Debug/../src/Bsp/Core/trap_handle.c:60
	uint64_t ulCurTimer = 0;
   12e64:	00000793          	li	a5,0
   12e68:	00000813          	li	a6,0
   12e6c:	fcf42423          	sw	a5,-56(s0)
   12e70:	fd042623          	sw	a6,-52(s0)
D:\CreateIC\01_CPIPC\riscv\RISCV_ENC_20220421\Firmware_true\app_prj\app_demo\Debug/../src/Bsp/Core/trap_handle.c:62

    ulCurTimerL = MachineTimerCtrllerCurTimeLGet(pstMachTimer);
   12e74:	fdc42503          	lw	a0,-36(s0)
   12e78:	fb9fe0ef          	jal	ra,11e30 <MachineTimerCtrllerCurTimeLGet>
   12e7c:	fca42c23          	sw	a0,-40(s0)
D:\CreateIC\01_CPIPC\riscv\RISCV_ENC_20220421\Firmware_true\app_prj\app_demo\Debug/../src/Bsp/Core/trap_handle.c:63
    ulCurTimerH = MachineTimerCtrllerCurTimeHGet(pstMachTimer);
   12e80:	fdc42503          	lw	a0,-36(s0)
   12e84:	ff5fe0ef          	jal	ra,11e78 <MachineTimerCtrllerCurTimeHGet>
   12e88:	fca42a23          	sw	a0,-44(s0)
D:\CreateIC\01_CPIPC\riscv\RISCV_ENC_20220421\Firmware_true\app_prj\app_demo\Debug/../src/Bsp/Core/trap_handle.c:64
    ulCurTimer = (((uint64_t)ulCurTimerH << 32) | ulCurTimerL);
   12e8c:	fd442783          	lw	a5,-44(s0)
   12e90:	00078b13          	mv	s6,a5
   12e94:	00000b93          	li	s7,0
   12e98:	000b1993          	slli	s3,s6,0x0
   12e9c:	00000913          	li	s2,0
   12ea0:	fd842783          	lw	a5,-40(s0)
   12ea4:	00078a13          	mv	s4,a5
   12ea8:	00000a93          	li	s5,0
   12eac:	014967b3          	or	a5,s2,s4
   12eb0:	fcf42423          	sw	a5,-56(s0)
   12eb4:	0159e7b3          	or	a5,s3,s5
   12eb8:	fcf42623          	sw	a5,-52(s0)
D:\CreateIC\01_CPIPC\riscv\RISCV_ENC_20220421\Firmware_true\app_prj\app_demo\Debug/../src/Bsp/Core/trap_handle.c:65
    ulCurTimer = ulCurTimer + DEF_TIMER_PERIOD;
   12ebc:	fc842683          	lw	a3,-56(s0)
   12ec0:	fcc42703          	lw	a4,-52(s0)
   12ec4:	027bd5b7          	lui	a1,0x27bd
   12ec8:	86a58593          	addi	a1,a1,-1942 # 27bc86a <__freertos_irq_stack_top+0x277e1ea>
   12ecc:	00000613          	li	a2,0
   12ed0:	00b687b3          	add	a5,a3,a1
   12ed4:	00078513          	mv	a0,a5
   12ed8:	00d53533          	sltu	a0,a0,a3
   12edc:	00c70833          	add	a6,a4,a2
   12ee0:	01050733          	add	a4,a0,a6
   12ee4:	00070813          	mv	a6,a4
   12ee8:	fcf42423          	sw	a5,-56(s0)
   12eec:	fd042623          	sw	a6,-52(s0)
D:\CreateIC\01_CPIPC\riscv\RISCV_ENC_20220421\Firmware_true\app_prj\app_demo\Debug/../src/Bsp/Core/trap_handle.c:66
    MachineTimerCtrllerCmpSet(pstMachTimer, ulCurTimer);
   12ef0:	fc842583          	lw	a1,-56(s0)
   12ef4:	fcc42603          	lw	a2,-52(s0)
   12ef8:	fdc42503          	lw	a0,-36(s0)
   12efc:	fc5fe0ef          	jal	ra,11ec0 <MachineTimerCtrllerCmpSet>
D:\CreateIC\01_CPIPC\riscv\RISCV_ENC_20220421\Firmware_true\app_prj\app_demo\Debug/../src/Bsp/Core/trap_handle.c:67
}
   12f00:	00000013          	nop
   12f04:	03c12083          	lw	ra,60(sp)
   12f08:	03812403          	lw	s0,56(sp)
   12f0c:	03412903          	lw	s2,52(sp)
   12f10:	03012983          	lw	s3,48(sp)
   12f14:	02c12a03          	lw	s4,44(sp)
   12f18:	02812a83          	lw	s5,40(sp)
   12f1c:	02412b03          	lw	s6,36(sp)
   12f20:	02012b83          	lw	s7,32(sp)
   12f24:	04010113          	addi	sp,sp,64
   12f28:	00008067          	ret

00012f2c <ExceptionHandleExcute>:
ExceptionHandleExcute():
D:\CreateIC\01_CPIPC\riscv\RISCV_ENC_20220421\Firmware_true\app_prj\app_demo\Debug/../src/Bsp/Core/trap_handle.c:75
 * @brief  异常发生时执行接口
 * @param  无
 * @retval 无
*****************************************************************/
void ExceptionHandleExcute()
{
   12f2c:	ff010113          	addi	sp,sp,-16
   12f30:	00112623          	sw	ra,12(sp)
   12f34:	00812423          	sw	s0,8(sp)
   12f38:	01010413          	addi	s0,sp,16
D:\CreateIC\01_CPIPC\riscv\RISCV_ENC_20220421\Firmware_true\app_prj\app_demo\Debug/../src/Bsp/Core/trap_handle.c:76
	printf ("/n __Exception Occured: Fatal Fault!/n");
   12f3c:	000157b7          	lui	a5,0x15
   12f40:	23878513          	addi	a0,a5,568 # 15238 <__init_array_end+0x174>
   12f44:	5d1000ef          	jal	ra,13d14 <iprintf>
D:\CreateIC\01_CPIPC\riscv\RISCV_ENC_20220421\Firmware_true\app_prj\app_demo\Debug/../src/Bsp/Core/trap_handle.c:77 (discriminator 1)
	while (1);
   12f48:	0000006f          	j	12f48 <ExceptionHandleExcute+0x1c>

00012f4c <TrapInit>:
TrapInit():
D:\CreateIC\01_CPIPC\riscv\RISCV_ENC_20220421\Firmware_true\app_prj\app_demo\Debug/../src/Bsp/Core/trap_handle.c:86
 * @brief  系统中断初始化
 * @param  无
 * @retval 无
*****************************************************************/
void TrapInit()
{
   12f4c:	fe010113          	addi	sp,sp,-32
   12f50:	00812e23          	sw	s0,28(sp)
   12f54:	02010413          	addi	s0,sp,32
D:\CreateIC\01_CPIPC\riscv\RISCV_ENC_20220421\Firmware_true\app_prj\app_demo\Debug/../src/Bsp/Core/trap_handle.c:87
    csr_set(mie, MIE_MEIE | MIE_MSIE);             //Enable machine timer and external interrupts
   12f58:	000017b7          	lui	a5,0x1
   12f5c:	80878793          	addi	a5,a5,-2040 # 808 <__stack_size-0xf7f8>
   12f60:	fef42623          	sw	a5,-20(s0)
   12f64:	fec42783          	lw	a5,-20(s0)
   12f68:	3047a073          	csrs	mie,a5
D:\CreateIC\01_CPIPC\riscv\RISCV_ENC_20220421\Firmware_true\app_prj\app_demo\Debug/../src/Bsp/Core/trap_handle.c:88
    csr_write(mstatus, MSTATUS_MPP | MSTATUS_MIE);
   12f6c:	000027b7          	lui	a5,0x2
   12f70:	80878793          	addi	a5,a5,-2040 # 1808 <__stack_size-0xe7f8>
   12f74:	fef42423          	sw	a5,-24(s0)
   12f78:	fe842783          	lw	a5,-24(s0)
   12f7c:	30079073          	csrw	mstatus,a5
D:\CreateIC\01_CPIPC\riscv\RISCV_ENC_20220421\Firmware_true\app_prj\app_demo\Debug/../src/Bsp/Core/trap_handle.c:89
}
   12f80:	00000013          	nop
   12f84:	01c12403          	lw	s0,28(sp)
   12f88:	02010113          	addi	sp,sp,32
   12f8c:	00008067          	ret

00012f90 <trap>:
trap():
D:\CreateIC\01_CPIPC\riscv\RISCV_ENC_20220421\Firmware_true\app_prj\app_demo\Debug/../src/Bsp/Core/trap_handle.c:97
 * @brief  系统异常调度接口
 * @param  无
 * @retval 无
*****************************************************************/
void trap(int32_t mcause, uint32_t mepc, uint32_t sp[])
{
   12f90:	fd010113          	addi	sp,sp,-48
   12f94:	02112623          	sw	ra,44(sp)
   12f98:	02812423          	sw	s0,40(sp)
   12f9c:	03010413          	addi	s0,sp,48
   12fa0:	fca42e23          	sw	a0,-36(s0)
   12fa4:	fcb42c23          	sw	a1,-40(s0)
   12fa8:	fcc42a23          	sw	a2,-44(s0)
D:\CreateIC\01_CPIPC\riscv\RISCV_ENC_20220421\Firmware_true\app_prj\app_demo\Debug/../src/Bsp/Core/trap_handle.c:98
	int32_t interrupt = mcause < 0;               //Interrupt if true, exception if false
   12fac:	fdc42783          	lw	a5,-36(s0)
   12fb0:	01f7d793          	srli	a5,a5,0x1f
   12fb4:	0ff7f793          	andi	a5,a5,255
   12fb8:	fef42623          	sw	a5,-20(s0)
D:\CreateIC\01_CPIPC\riscv\RISCV_ENC_20220421\Firmware_true\app_prj\app_demo\Debug/../src/Bsp/Core/trap_handle.c:99
	int32_t cause     = mcause & 0xF;
   12fbc:	fdc42783          	lw	a5,-36(s0)
   12fc0:	00f7f793          	andi	a5,a5,15
   12fc4:	fef42423          	sw	a5,-24(s0)
D:\CreateIC\01_CPIPC\riscv\RISCV_ENC_20220421\Firmware_true\app_prj\app_demo\Debug/../src/Bsp/Core/trap_handle.c:102


    if (interrupt)
   12fc8:	fec42783          	lw	a5,-20(s0)
   12fcc:	08078c63          	beqz	a5,13064 <trap+0xd4>
D:\CreateIC\01_CPIPC\riscv\RISCV_ENC_20220421\Firmware_true\app_prj\app_demo\Debug/../src/Bsp/Core/trap_handle.c:104
    {
        switch(cause)
   12fd0:	fe842703          	lw	a4,-24(s0)
   12fd4:	00700793          	li	a5,7
   12fd8:	02f70c63          	beq	a4,a5,13010 <trap+0x80>
   12fdc:	fe842703          	lw	a4,-24(s0)
   12fe0:	00b00793          	li	a5,11
   12fe4:	02f70a63          	beq	a4,a5,13018 <trap+0x88>
   12fe8:	fe842703          	lw	a4,-24(s0)
   12fec:	00300793          	li	a5,3
   12ff0:	06f71463          	bne	a4,a5,13058 <trap+0xc8>
D:\CreateIC\01_CPIPC\riscv\RISCV_ENC_20220421\Firmware_true\app_prj\app_demo\Debug/../src/Bsp/Core/trap_handle.c:108
        {
            case CASE_MACHINE_SOFT:
            {
            	sp[31] = mepc;
   12ff4:	fd442783          	lw	a5,-44(s0)
   12ff8:	07c78793          	addi	a5,a5,124
   12ffc:	fd842703          	lw	a4,-40(s0)
   13000:	00e7a023          	sw	a4,0(a5)
D:\CreateIC\01_CPIPC\riscv\RISCV_ENC_20220421\Firmware_true\app_prj\app_demo\Debug/../src/Bsp/Core/trap_handle.c:109
            	SoftwareInterruptExcute(sp);
   13004:	fd442503          	lw	a0,-44(s0)
   13008:	de1ff0ef          	jal	ra,12de8 <SoftwareInterruptExcute>
D:\CreateIC\01_CPIPC\riscv\RISCV_ENC_20220421\Firmware_true\app_prj\app_demo\Debug/../src/Bsp/Core/trap_handle.c:110
            	break;
   1300c:	05c0006f          	j	13068 <trap+0xd8>
D:\CreateIC\01_CPIPC\riscv\RISCV_ENC_20220421\Firmware_true\app_prj\app_demo\Debug/../src/Bsp/Core/trap_handle.c:114
            }
            case CAUSE_MACHINE_TIMER:
            {
            	TimerInterruptExcute();
   13010:	e1dff0ef          	jal	ra,12e2c <TimerInterruptExcute>
D:\CreateIC\01_CPIPC\riscv\RISCV_ENC_20220421\Firmware_true\app_prj\app_demo\Debug/../src/Bsp/Core/trap_handle.c:115
            	break;
   13014:	0540006f          	j	13068 <trap+0xd8>
D:\CreateIC\01_CPIPC\riscv\RISCV_ENC_20220421\Firmware_true\app_prj\app_demo\Debug/../src/Bsp/Core/trap_handle.c:119
            }
            case CAUSE_MACHINE_EXTERNAL:
            {
            	csr_set(mie, MIE_MEIE);
   13018:	000017b7          	lui	a5,0x1
   1301c:	80078793          	addi	a5,a5,-2048 # 800 <__stack_size-0xf800>
   13020:	fef42223          	sw	a5,-28(s0)
   13024:	fe442783          	lw	a5,-28(s0)
   13028:	3047a073          	csrs	mie,a5
D:\CreateIC\01_CPIPC\riscv\RISCV_ENC_20220421\Firmware_true\app_prj\app_demo\Debug/../src/Bsp/Core/trap_handle.c:120
            	PUSH_MEPC;
   1302c:	34102573          	csrr	a0,mepc
   13030:	00a12223          	sw	a0,4(sp)
D:\CreateIC\01_CPIPC\riscv\RISCV_ENC_20220421\Firmware_true\app_prj\app_demo\Debug/../src/Bsp/Core/trap_handle.c:121
            	ExternalInterruptExcute();
   13034:	8d9fe0ef          	jal	ra,1190c <ExternalInterruptExcute>
D:\CreateIC\01_CPIPC\riscv\RISCV_ENC_20220421\Firmware_true\app_prj\app_demo\Debug/../src/Bsp/Core/trap_handle.c:122
            	POP_MEPC;
   13038:	00412503          	lw	a0,4(sp)
   1303c:	34151073          	csrw	mepc,a0
D:\CreateIC\01_CPIPC\riscv\RISCV_ENC_20220421\Firmware_true\app_prj\app_demo\Debug/../src/Bsp/Core/trap_handle.c:123
            	csr_set(mie, MIE_MEIE | MIE_MSIE);
   13040:	000017b7          	lui	a5,0x1
   13044:	80878793          	addi	a5,a5,-2040 # 808 <__stack_size-0xf7f8>
   13048:	fef42023          	sw	a5,-32(s0)
   1304c:	fe042783          	lw	a5,-32(s0)
   13050:	3047a073          	csrs	mie,a5
D:\CreateIC\01_CPIPC\riscv\RISCV_ENC_20220421\Firmware_true\app_prj\app_demo\Debug/../src/Bsp/Core/trap_handle.c:124
            	break;
   13054:	0140006f          	j	13068 <trap+0xd8>
D:\CreateIC\01_CPIPC\riscv\RISCV_ENC_20220421\Firmware_true\app_prj\app_demo\Debug/../src/Bsp/Core/trap_handle.c:128
            }
            default:
            {
            	ExceptionHandleExcute();
   13058:	ed5ff0ef          	jal	ra,12f2c <ExceptionHandleExcute>
D:\CreateIC\01_CPIPC\riscv\RISCV_ENC_20220421\Firmware_true\app_prj\app_demo\Debug/../src/Bsp/Core/trap_handle.c:129
            	break;
   1305c:	00000013          	nop
   13060:	0080006f          	j	13068 <trap+0xd8>
D:\CreateIC\01_CPIPC\riscv\RISCV_ENC_20220421\Firmware_true\app_prj\app_demo\Debug/../src/Bsp/Core/trap_handle.c:135
            }
        }
    }
    else
    {
    	ExceptionHandleExcute();
   13064:	ec9ff0ef          	jal	ra,12f2c <ExceptionHandleExcute>
D:\CreateIC\01_CPIPC\riscv\RISCV_ENC_20220421\Firmware_true\app_prj\app_demo\Debug/../src/Bsp/Core/trap_handle.c:137
    }
}
   13068:	00000013          	nop
   1306c:	02c12083          	lw	ra,44(sp)
   13070:	02812403          	lw	s0,40(sp)
   13074:	03010113          	addi	sp,sp,48
   13078:	00008067          	ret

0001307c <load_image>:
load_image():
D:\CreateIC\01_CPIPC\riscv\RISCV_ENC_20220421\Firmware_true\app_prj\app_demo\Debug/../src/main.c:44
void load_image(){
   1307c:	ff010113          	addi	sp,sp,-16
   13080:	00112623          	sw	ra,12(sp)
   13084:	00812423          	sw	s0,8(sp)
   13088:	01010413          	addi	s0,sp,16
D:\CreateIC\01_CPIPC\riscv\RISCV_ENC_20220421\Firmware_true\app_prj\app_demo\Debug/../src/main.c:45
	stGpioObj.stCfgParam.ulChannels = GPIO_Pin_1;
   1308c:	000157b7          	lui	a5,0x15
   13090:	65878793          	addi	a5,a5,1624 # 15658 <stGpioObj>
   13094:	00200713          	li	a4,2
   13098:	00e7a623          	sw	a4,12(a5)
D:\CreateIC\01_CPIPC\riscv\RISCV_ENC_20220421\Firmware_true\app_prj\app_demo\Debug/../src/main.c:48
    GpioBitsDoutSet(&stGpioObj);
   1309c:	000157b7          	lui	a5,0x15
   130a0:	65878513          	addi	a0,a5,1624 # 15658 <stGpioObj>
   130a4:	e70fd0ef          	jal	ra,10714 <GpioBitsDoutSet>
D:\CreateIC\01_CPIPC\riscv\RISCV_ENC_20220421\Firmware_true\app_prj\app_demo\Debug/../src/main.c:49
    DelayUs(5);
   130a8:	00500513          	li	a0,5
   130ac:	bedff0ef          	jal	ra,12c98 <DelayUs>
D:\CreateIC\01_CPIPC\riscv\RISCV_ENC_20220421\Firmware_true\app_prj\app_demo\Debug/../src/main.c:50
    GpioBitsDoutClear(&stGpioObj);
   130b0:	000157b7          	lui	a5,0x15
   130b4:	65878513          	addi	a0,a5,1624 # 15658 <stGpioObj>
   130b8:	ed4fd0ef          	jal	ra,1078c <GpioBitsDoutClear>
D:\CreateIC\01_CPIPC\riscv\RISCV_ENC_20220421\Firmware_true\app_prj\app_demo\Debug/../src/main.c:51
}
   130bc:	00000013          	nop
   130c0:	00c12083          	lw	ra,12(sp)
   130c4:	00812403          	lw	s0,8(sp)
   130c8:	01010113          	addi	sp,sp,16
   130cc:	00008067          	ret

000130d0 <soft_rstn>:
soft_rstn():
D:\CreateIC\01_CPIPC\riscv\RISCV_ENC_20220421\Firmware_true\app_prj\app_demo\Debug/../src/main.c:53
void soft_rstn(){
   130d0:	ff010113          	addi	sp,sp,-16
   130d4:	00112623          	sw	ra,12(sp)
   130d8:	00812423          	sw	s0,8(sp)
   130dc:	01010413          	addi	s0,sp,16
D:\CreateIC\01_CPIPC\riscv\RISCV_ENC_20220421\Firmware_true\app_prj\app_demo\Debug/../src/main.c:54
	stGpioObj.stCfgParam.ulChannels = GPIO_Pin_3;
   130e0:	000157b7          	lui	a5,0x15
   130e4:	65878793          	addi	a5,a5,1624 # 15658 <stGpioObj>
   130e8:	00800713          	li	a4,8
   130ec:	00e7a623          	sw	a4,12(a5)
D:\CreateIC\01_CPIPC\riscv\RISCV_ENC_20220421\Firmware_true\app_prj\app_demo\Debug/../src/main.c:57
    GpioBitsDoutSet(&stGpioObj);
   130f0:	000157b7          	lui	a5,0x15
   130f4:	65878513          	addi	a0,a5,1624 # 15658 <stGpioObj>
   130f8:	e1cfd0ef          	jal	ra,10714 <GpioBitsDoutSet>
D:\CreateIC\01_CPIPC\riscv\RISCV_ENC_20220421\Firmware_true\app_prj\app_demo\Debug/../src/main.c:58
    DelayUs(10);
   130fc:	00a00513          	li	a0,10
   13100:	b99ff0ef          	jal	ra,12c98 <DelayUs>
D:\CreateIC\01_CPIPC\riscv\RISCV_ENC_20220421\Firmware_true\app_prj\app_demo\Debug/../src/main.c:59
    GpioBitsDoutClear(&stGpioObj);
   13104:	000157b7          	lui	a5,0x15
   13108:	65878513          	addi	a0,a5,1624 # 15658 <stGpioObj>
   1310c:	e80fd0ef          	jal	ra,1078c <GpioBitsDoutClear>
D:\CreateIC\01_CPIPC\riscv\RISCV_ENC_20220421\Firmware_true\app_prj\app_demo\Debug/../src/main.c:60
}
   13110:	00000013          	nop
   13114:	00c12083          	lw	ra,12(sp)
   13118:	00812403          	lw	s0,8(sp)
   1311c:	01010113          	addi	sp,sp,16
   13120:	00008067          	ret

00013124 <UartIntrTest>:
UartIntrTest():
D:\CreateIC\01_CPIPC\riscv\RISCV_ENC_20220421\Firmware_true\app_prj\app_demo\Debug/../src/main.c:129

}


void UartIntrTest(void)
{
   13124:	de010113          	addi	sp,sp,-544
   13128:	20112e23          	sw	ra,540(sp)
   1312c:	20812c23          	sw	s0,536(sp)
   13130:	22010413          	addi	s0,sp,544
D:\CreateIC\01_CPIPC\riscv\RISCV_ENC_20220421\Firmware_true\app_prj\app_demo\Debug/../src/main.c:130
	uint32_t *pulSoftAddr = (uint32_t *)SOFT_INTR_BASE_ADDR;
   13134:	f80067b7          	lui	a5,0xf8006
   13138:	fef42423          	sw	a5,-24(s0)
D:\CreateIC\01_CPIPC\riscv\RISCV_ENC_20220421\Firmware_true\app_prj\app_demo\Debug/../src/main.c:131
	UartStructDeInit(&stUartObj);
   1313c:	000157b7          	lui	a5,0x15
   13140:	61c78513          	addi	a0,a5,1564 # 1561c <stUartObj>
   13144:	e49fe0ef          	jal	ra,11f8c <UartStructDeInit>
D:\CreateIC\01_CPIPC\riscv\RISCV_ENC_20220421\Firmware_true\app_prj\app_demo\Debug/../src/main.c:133

	stUartObj.stCfgParam.ucIntrCtrl = UART_INTR_ERBI_EN;
   13148:	000157b7          	lui	a5,0x15
   1314c:	61c78793          	addi	a5,a5,1564 # 1561c <stUartObj>
   13150:	00100713          	li	a4,1
   13154:	00e78b23          	sb	a4,22(a5)
D:\CreateIC\01_CPIPC\riscv\RISCV_ENC_20220421\Firmware_true\app_prj\app_demo\Debug/../src/main.c:134
	stUartObj.stPlicCfgParam.ucIntrEnFlage = ENABLE;
   13158:	000157b7          	lui	a5,0x15
   1315c:	61c78793          	addi	a5,a5,1564 # 1561c <stUartObj>
   13160:	00100713          	li	a4,1
   13164:	00e78e23          	sb	a4,28(a5)
D:\CreateIC\01_CPIPC\riscv\RISCV_ENC_20220421\Firmware_true\app_prj\app_demo\Debug/../src/main.c:136

	UartObjConfigInit(&stUartObj);
   13168:	000157b7          	lui	a5,0x15
   1316c:	61c78513          	addi	a0,a5,1564 # 1561c <stUartObj>
   13170:	f01fe0ef          	jal	ra,12070 <UartObjConfigInit>
D:\CreateIC\01_CPIPC\riscv\RISCV_ENC_20220421\Firmware_true\app_prj\app_demo\Debug/../src/main.c:138

	MachineTimerObjStructDeInit(&stTimerObj);
   13174:	000157b7          	lui	a5,0x15
   13178:	64078513          	addi	a0,a5,1600 # 15640 <stTimerObj>
   1317c:	9b5fe0ef          	jal	ra,11b30 <MachineTimerObjStructDeInit>
D:\CreateIC\01_CPIPC\riscv\RISCV_ENC_20220421\Firmware_true\app_prj\app_demo\Debug/../src/main.c:139
	MachineTimerObjConfigInit(&stTimerObj);
   13180:	000157b7          	lui	a5,0x15
   13184:	64078513          	addi	a0,a5,1600 # 15640 <stTimerObj>
   13188:	a35fe0ef          	jal	ra,11bbc <MachineTimerObjConfigInit>
D:\CreateIC\01_CPIPC\riscv\RISCV_ENC_20220421\Firmware_true\app_prj\app_demo\Debug/../src/main.c:140
	TrapInit();
   1318c:	dc1ff0ef          	jal	ra,12f4c <TrapInit>
D:\CreateIC\01_CPIPC\riscv\RISCV_ENC_20220421\Firmware_true\app_prj\app_demo\Debug/../src/main.c:141
	uint8_t aucCount = 0;
   13190:	fe0403a3          	sb	zero,-25(s0)
D:\CreateIC\01_CPIPC\riscv\RISCV_ENC_20220421\Firmware_true\app_prj\app_demo\Debug/../src/main.c:142
	uint8_t aucSendBuf[256] = {0};
   13194:	ee440793          	addi	a5,s0,-284
   13198:	10000713          	li	a4,256
   1319c:	00070613          	mv	a2,a4
   131a0:	00000593          	li	a1,0
   131a4:	00078513          	mv	a0,a5
   131a8:	0e9000ef          	jal	ra,13a90 <memset>
D:\CreateIC\01_CPIPC\riscv\RISCV_ENC_20220421\Firmware_true\app_prj\app_demo\Debug/../src/main.c:143
	uint8_t aucRecvBuf[256] = {0};
   131ac:	de440793          	addi	a5,s0,-540
   131b0:	10000713          	li	a4,256
   131b4:	00070613          	mv	a2,a4
   131b8:	00000593          	li	a1,0
   131bc:	00078513          	mv	a0,a5
   131c0:	0d1000ef          	jal	ra,13a90 <memset>
D:\CreateIC\01_CPIPC\riscv\RISCV_ENC_20220421\Firmware_true\app_prj\app_demo\Debug/../src/main.c:144
	stUartObj.usRecvDataSize = 1;
   131c4:	000157b7          	lui	a5,0x15
   131c8:	61c78793          	addi	a5,a5,1564 # 1561c <stUartObj>
   131cc:	00100713          	li	a4,1
   131d0:	00e79723          	sh	a4,14(a5)
D:\CreateIC\01_CPIPC\riscv\RISCV_ENC_20220421\Firmware_true\app_prj\app_demo\Debug/../src/main.c:145
	stUartObj.usRecvBytesCnt = 0;
   131d4:	000157b7          	lui	a5,0x15
   131d8:	61c78793          	addi	a5,a5,1564 # 1561c <stUartObj>
   131dc:	00079923          	sh	zero,18(a5)
D:\CreateIC\01_CPIPC\riscv\RISCV_ENC_20220421\Firmware_true\app_prj\app_demo\Debug/../src/main.c:146
	stUartObj.pucRecvBuf = aucRecvBuf;
   131e0:	000157b7          	lui	a5,0x15
   131e4:	61c78793          	addi	a5,a5,1564 # 1561c <stUartObj>
   131e8:	de440713          	addi	a4,s0,-540
   131ec:	00e7a423          	sw	a4,8(a5)
D:\CreateIC\01_CPIPC\riscv\RISCV_ENC_20220421\Firmware_true\app_prj\app_demo\Debug/../src/main.c:150

	while(1)
	{
		if (!wr_flag && !rd_flag && stUartObj.usRecvBytesCnt == stUartObj.usRecvDataSize) 	//
   131f0:	000157b7          	lui	a5,0x15
   131f4:	5747c783          	lbu	a5,1396(a5) # 15574 <wr_flag>
   131f8:	fe079ce3          	bnez	a5,131f0 <UartIntrTest+0xcc>
D:\CreateIC\01_CPIPC\riscv\RISCV_ENC_20220421\Firmware_true\app_prj\app_demo\Debug/../src/main.c:150 (discriminator 1)
   131fc:	000157b7          	lui	a5,0x15
   13200:	5757c783          	lbu	a5,1397(a5) # 15575 <rd_flag>
   13204:	fe0796e3          	bnez	a5,131f0 <UartIntrTest+0xcc>
D:\CreateIC\01_CPIPC\riscv\RISCV_ENC_20220421\Firmware_true\app_prj\app_demo\Debug/../src/main.c:150 (discriminator 2)
   13208:	000157b7          	lui	a5,0x15
   1320c:	61c78793          	addi	a5,a5,1564 # 1561c <stUartObj>
   13210:	0127d703          	lhu	a4,18(a5)
   13214:	000157b7          	lui	a5,0x15
   13218:	61c78793          	addi	a5,a5,1564 # 1561c <stUartObj>
   1321c:	00e7d783          	lhu	a5,14(a5)
   13220:	fcf718e3          	bne	a4,a5,131f0 <UartIntrTest+0xcc>
D:\CreateIC\01_CPIPC\riscv\RISCV_ENC_20220421\Firmware_true\app_prj\app_demo\Debug/../src/main.c:152
		{
			switch(aucRecvBuf[0]){
   13224:	de444783          	lbu	a5,-540(s0)
   13228:	0cc00713          	li	a4,204
   1322c:	0ae78863          	beq	a5,a4,132dc <UartIntrTest+0x1b8>
   13230:	0cc00713          	li	a4,204
   13234:	00f74c63          	blt	a4,a5,1324c <UartIntrTest+0x128>
   13238:	0aa00713          	li	a4,170
   1323c:	02e78263          	beq	a5,a4,13260 <UartIntrTest+0x13c>
   13240:	0bb00713          	li	a4,187
   13244:	04e78c63          	beq	a5,a4,1329c <UartIntrTest+0x178>
   13248:	0fc0006f          	j	13344 <UartIntrTest+0x220>
   1324c:	0dd00713          	li	a4,221
   13250:	0ce78663          	beq	a5,a4,1331c <UartIntrTest+0x1f8>
   13254:	0ee00713          	li	a4,238
   13258:	0ce78c63          	beq	a5,a4,13330 <UartIntrTest+0x20c>
   1325c:	0e80006f          	j	13344 <UartIntrTest+0x220>
D:\CreateIC\01_CPIPC\riscv\RISCV_ENC_20220421\Firmware_true\app_prj\app_demo\Debug/../src/main.c:154
			case 0xaa:
				wr_flag = 0;
   13260:	000157b7          	lui	a5,0x15
   13264:	56078a23          	sb	zero,1396(a5) # 15574 <wr_flag>
D:\CreateIC\01_CPIPC\riscv\RISCV_ENC_20220421\Firmware_true\app_prj\app_demo\Debug/../src/main.c:155
				rd_flag = 0;
   13268:	000157b7          	lui	a5,0x15
   1326c:	56078aa3          	sb	zero,1397(a5) # 15575 <rd_flag>
D:\CreateIC\01_CPIPC\riscv\RISCV_ENC_20220421\Firmware_true\app_prj\app_demo\Debug/../src/main.c:156
				printf("[Reset] wr flag: %d, rd flag: %d \r", wr_flag, rd_flag);
   13270:	000157b7          	lui	a5,0x15
   13274:	5747c783          	lbu	a5,1396(a5) # 15574 <wr_flag>
   13278:	00078713          	mv	a4,a5
   1327c:	000157b7          	lui	a5,0x15
   13280:	5757c783          	lbu	a5,1397(a5) # 15575 <rd_flag>
   13284:	00078613          	mv	a2,a5
   13288:	00070593          	mv	a1,a4
   1328c:	000157b7          	lui	a5,0x15
   13290:	2bc78513          	addi	a0,a5,700 # 152bc <__init_array_end+0x1f8>
   13294:	281000ef          	jal	ra,13d14 <iprintf>
D:\CreateIC\01_CPIPC\riscv\RISCV_ENC_20220421\Firmware_true\app_prj\app_demo\Debug/../src/main.c:157
				break;
   13298:	0c00006f          	j	13358 <UartIntrTest+0x234>
D:\CreateIC\01_CPIPC\riscv\RISCV_ENC_20220421\Firmware_true\app_prj\app_demo\Debug/../src/main.c:159
			case 0xbb:
				wr_flag = 1;
   1329c:	000157b7          	lui	a5,0x15
   132a0:	00100713          	li	a4,1
   132a4:	56e78a23          	sb	a4,1396(a5) # 15574 <wr_flag>
D:\CreateIC\01_CPIPC\riscv\RISCV_ENC_20220421\Firmware_true\app_prj\app_demo\Debug/../src/main.c:160
				rd_flag = 0;
   132a8:	000157b7          	lui	a5,0x15
   132ac:	56078aa3          	sb	zero,1397(a5) # 15575 <rd_flag>
D:\CreateIC\01_CPIPC\riscv\RISCV_ENC_20220421\Firmware_true\app_prj\app_demo\Debug/../src/main.c:161
				printf("\r wr flag: %d, rd flag: %d \r", wr_flag, rd_flag);
   132b0:	000157b7          	lui	a5,0x15
   132b4:	5747c783          	lbu	a5,1396(a5) # 15574 <wr_flag>
   132b8:	00078713          	mv	a4,a5
   132bc:	000157b7          	lui	a5,0x15
   132c0:	5757c783          	lbu	a5,1397(a5) # 15575 <rd_flag>
   132c4:	00078613          	mv	a2,a5
   132c8:	00070593          	mv	a1,a4
   132cc:	000157b7          	lui	a5,0x15
   132d0:	2e078513          	addi	a0,a5,736 # 152e0 <__init_array_end+0x21c>
   132d4:	241000ef          	jal	ra,13d14 <iprintf>
D:\CreateIC\01_CPIPC\riscv\RISCV_ENC_20220421\Firmware_true\app_prj\app_demo\Debug/../src/main.c:162
				break;
   132d8:	0800006f          	j	13358 <UartIntrTest+0x234>
D:\CreateIC\01_CPIPC\riscv\RISCV_ENC_20220421\Firmware_true\app_prj\app_demo\Debug/../src/main.c:164
			case 0xcc:
				wr_flag = 0;
   132dc:	000157b7          	lui	a5,0x15
   132e0:	56078a23          	sb	zero,1396(a5) # 15574 <wr_flag>
D:\CreateIC\01_CPIPC\riscv\RISCV_ENC_20220421\Firmware_true\app_prj\app_demo\Debug/../src/main.c:165
				rd_flag = 1;
   132e4:	000157b7          	lui	a5,0x15
   132e8:	00100713          	li	a4,1
   132ec:	56e78aa3          	sb	a4,1397(a5) # 15575 <rd_flag>
D:\CreateIC\01_CPIPC\riscv\RISCV_ENC_20220421\Firmware_true\app_prj\app_demo\Debug/../src/main.c:166
				printf("\r wr flag: %d, rd flag: %d \r", wr_flag, rd_flag);
   132f0:	000157b7          	lui	a5,0x15
   132f4:	5747c783          	lbu	a5,1396(a5) # 15574 <wr_flag>
   132f8:	00078713          	mv	a4,a5
   132fc:	000157b7          	lui	a5,0x15
   13300:	5757c783          	lbu	a5,1397(a5) # 15575 <rd_flag>
   13304:	00078613          	mv	a2,a5
   13308:	00070593          	mv	a1,a4
   1330c:	000157b7          	lui	a5,0x15
   13310:	2e078513          	addi	a0,a5,736 # 152e0 <__init_array_end+0x21c>
   13314:	201000ef          	jal	ra,13d14 <iprintf>
D:\CreateIC\01_CPIPC\riscv\RISCV_ENC_20220421\Firmware_true\app_prj\app_demo\Debug/../src/main.c:167
				break;
   13318:	0400006f          	j	13358 <UartIntrTest+0x234>
D:\CreateIC\01_CPIPC\riscv\RISCV_ENC_20220421\Firmware_true\app_prj\app_demo\Debug/../src/main.c:169
			case 0xdd:
				load_image();
   1331c:	d61ff0ef          	jal	ra,1307c <load_image>
D:\CreateIC\01_CPIPC\riscv\RISCV_ENC_20220421\Firmware_true\app_prj\app_demo\Debug/../src/main.c:170
				printf("\r load image  \r");
   13320:	000157b7          	lui	a5,0x15
   13324:	30078513          	addi	a0,a5,768 # 15300 <__init_array_end+0x23c>
   13328:	1ed000ef          	jal	ra,13d14 <iprintf>
D:\CreateIC\01_CPIPC\riscv\RISCV_ENC_20220421\Firmware_true\app_prj\app_demo\Debug/../src/main.c:171
				break;
   1332c:	02c0006f          	j	13358 <UartIntrTest+0x234>
D:\CreateIC\01_CPIPC\riscv\RISCV_ENC_20220421\Firmware_true\app_prj\app_demo\Debug/../src/main.c:173
			case 0xee:
				soft_rstn();
   13330:	da1ff0ef          	jal	ra,130d0 <soft_rstn>
D:\CreateIC\01_CPIPC\riscv\RISCV_ENC_20220421\Firmware_true\app_prj\app_demo\Debug/../src/main.c:174
				printf("\r soft reset! \r");
   13334:	000157b7          	lui	a5,0x15
   13338:	31078513          	addi	a0,a5,784 # 15310 <__init_array_end+0x24c>
   1333c:	1d9000ef          	jal	ra,13d14 <iprintf>
D:\CreateIC\01_CPIPC\riscv\RISCV_ENC_20220421\Firmware_true\app_prj\app_demo\Debug/../src/main.c:175
				break;
   13340:	0180006f          	j	13358 <UartIntrTest+0x234>
D:\CreateIC\01_CPIPC\riscv\RISCV_ENC_20220421\Firmware_true\app_prj\app_demo\Debug/../src/main.c:177
			default:
				wr_flag = 0;
   13344:	000157b7          	lui	a5,0x15
   13348:	56078a23          	sb	zero,1396(a5) # 15574 <wr_flag>
D:\CreateIC\01_CPIPC\riscv\RISCV_ENC_20220421\Firmware_true\app_prj\app_demo\Debug/../src/main.c:178
				rd_flag = 0;
   1334c:	000157b7          	lui	a5,0x15
   13350:	56078aa3          	sb	zero,1397(a5) # 15575 <rd_flag>
D:\CreateIC\01_CPIPC\riscv\RISCV_ENC_20220421\Firmware_true\app_prj\app_demo\Debug/../src/main.c:179
				break;
   13354:	00000013          	nop
D:\CreateIC\01_CPIPC\riscv\RISCV_ENC_20220421\Firmware_true\app_prj\app_demo\Debug/../src/main.c:182
			}

			stUartObj.usRecvBytesCnt = 0;
   13358:	000157b7          	lui	a5,0x15
   1335c:	61c78793          	addi	a5,a5,1564 # 1561c <stUartObj>
   13360:	00079923          	sh	zero,18(a5)
D:\CreateIC\01_CPIPC\riscv\RISCV_ENC_20220421\Firmware_true\app_prj\app_demo\Debug/../src/main.c:183
			for(int i=0;i<stUartObj.usRecvDataSize;i++){
   13364:	fe042623          	sw	zero,-20(s0)
   13368:	0300006f          	j	13398 <UartIntrTest+0x274>
D:\CreateIC\01_CPIPC\riscv\RISCV_ENC_20220421\Firmware_true\app_prj\app_demo\Debug/../src/main.c:184 (discriminator 3)
	            printf ("接收到的数据： %d\r", aucRecvBuf[i]);
   1336c:	fec42783          	lw	a5,-20(s0)
   13370:	ff040713          	addi	a4,s0,-16
   13374:	00f707b3          	add	a5,a4,a5
   13378:	df47c783          	lbu	a5,-524(a5)
   1337c:	00078593          	mv	a1,a5
   13380:	000157b7          	lui	a5,0x15
   13384:	32078513          	addi	a0,a5,800 # 15320 <__init_array_end+0x25c>
   13388:	18d000ef          	jal	ra,13d14 <iprintf>
D:\CreateIC\01_CPIPC\riscv\RISCV_ENC_20220421\Firmware_true\app_prj\app_demo\Debug/../src/main.c:183 (discriminator 3)
			for(int i=0;i<stUartObj.usRecvDataSize;i++){
   1338c:	fec42783          	lw	a5,-20(s0)
   13390:	00178793          	addi	a5,a5,1
   13394:	fef42623          	sw	a5,-20(s0)
D:\CreateIC\01_CPIPC\riscv\RISCV_ENC_20220421\Firmware_true\app_prj\app_demo\Debug/../src/main.c:183 (discriminator 1)
   13398:	000157b7          	lui	a5,0x15
   1339c:	61c78793          	addi	a5,a5,1564 # 1561c <stUartObj>
   133a0:	00e7d783          	lhu	a5,14(a5)
   133a4:	00078713          	mv	a4,a5
   133a8:	fec42783          	lw	a5,-20(s0)
   133ac:	fce7c0e3          	blt	a5,a4,1336c <UartIntrTest+0x248>
D:\CreateIC\01_CPIPC\riscv\RISCV_ENC_20220421\Firmware_true\app_prj\app_demo\Debug/../src/main.c:186
			}
			memset(aucRecvBuf, 0, stUartObj.usRecvDataSize);
   133b0:	000157b7          	lui	a5,0x15
   133b4:	61c78793          	addi	a5,a5,1564 # 1561c <stUartObj>
   133b8:	00e7d783          	lhu	a5,14(a5)
   133bc:	00078713          	mv	a4,a5
   133c0:	de440793          	addi	a5,s0,-540
   133c4:	00070613          	mv	a2,a4
   133c8:	00000593          	li	a1,0
   133cc:	00078513          	mv	a0,a5
   133d0:	6c0000ef          	jal	ra,13a90 <memset>
D:\CreateIC\01_CPIPC\riscv\RISCV_ENC_20220421\Firmware_true\app_prj\app_demo\Debug/../src/main.c:150
		if (!wr_flag && !rd_flag && stUartObj.usRecvBytesCnt == stUartObj.usRecvDataSize) 	//
   133d4:	e1dff06f          	j	131f0 <UartIntrTest+0xcc>

000133d8 <assert_failed>:
assert_failed():
D:\CreateIC\01_CPIPC\riscv\RISCV_ENC_20220421\Firmware_true\app_prj\app_demo\Debug/../src/main.c:383
}

#ifdef  USE_FULL_ASSERT

void assert_failed(uint8_t* file, uint32_t line)
{
   133d8:	fe010113          	addi	sp,sp,-32
   133dc:	00112e23          	sw	ra,28(sp)
   133e0:	00812c23          	sw	s0,24(sp)
   133e4:	02010413          	addi	s0,sp,32
   133e8:	fea42623          	sw	a0,-20(s0)
   133ec:	feb42423          	sw	a1,-24(s0)
D:\CreateIC\01_CPIPC\riscv\RISCV_ENC_20220421\Firmware_true\app_prj\app_demo\Debug/../src/main.c:384
	printf("Err: Filename-%s， Line-%d\n", file, line);
   133f0:	fe842603          	lw	a2,-24(s0)
   133f4:	fec42583          	lw	a1,-20(s0)
   133f8:	000157b7          	lui	a5,0x15
   133fc:	37078513          	addi	a0,a5,880 # 15370 <__init_array_end+0x2ac>
   13400:	115000ef          	jal	ra,13d14 <iprintf>
D:\CreateIC\01_CPIPC\riscv\RISCV_ENC_20220421\Firmware_true\app_prj\app_demo\Debug/../src/main.c:385 (discriminator 1)
	while (1);
   13404:	0000006f          	j	13404 <assert_failed+0x2c>

00013408 <__sflush_r>:
__sflush_r():
   13408:	00c5d783          	lhu	a5,12(a1)
   1340c:	fe010113          	addi	sp,sp,-32
   13410:	00812c23          	sw	s0,24(sp)
   13414:	00912a23          	sw	s1,20(sp)
   13418:	00112e23          	sw	ra,28(sp)
   1341c:	01212823          	sw	s2,16(sp)
   13420:	01312623          	sw	s3,12(sp)
   13424:	0087f713          	andi	a4,a5,8
   13428:	00050493          	mv	s1,a0
   1342c:	00058413          	mv	s0,a1
   13430:	14071e63          	bnez	a4,1358c <__sflush_r+0x184>
   13434:	0045a703          	lw	a4,4(a1)
   13438:	00e04a63          	bgtz	a4,1344c <__sflush_r+0x44>
   1343c:	0405a703          	lw	a4,64(a1)
   13440:	00e04663          	bgtz	a4,1344c <__sflush_r+0x44>
   13444:	00000513          	li	a0,0
   13448:	11c0006f          	j	13564 <__sflush_r+0x15c>
   1344c:	02c42703          	lw	a4,44(s0)
   13450:	fe070ae3          	beqz	a4,13444 <__sflush_r+0x3c>
   13454:	0004a903          	lw	s2,0(s1)
   13458:	01379693          	slli	a3,a5,0x13
   1345c:	0004a023          	sw	zero,0(s1)
   13460:	0a06de63          	bgez	a3,1351c <__sflush_r+0x114>
   13464:	05442503          	lw	a0,84(s0)
   13468:	00c45783          	lhu	a5,12(s0)
   1346c:	0047f793          	andi	a5,a5,4
   13470:	00078e63          	beqz	a5,1348c <__sflush_r+0x84>
   13474:	00442783          	lw	a5,4(s0)
   13478:	40f50533          	sub	a0,a0,a5
   1347c:	03442783          	lw	a5,52(s0)
   13480:	00078663          	beqz	a5,1348c <__sflush_r+0x84>
   13484:	04042783          	lw	a5,64(s0)
   13488:	40f50533          	sub	a0,a0,a5
   1348c:	02c42783          	lw	a5,44(s0)
   13490:	02042583          	lw	a1,32(s0)
   13494:	00050613          	mv	a2,a0
   13498:	00000693          	li	a3,0
   1349c:	00048513          	mv	a0,s1
   134a0:	000780e7          	jalr	a5
   134a4:	fff00793          	li	a5,-1
   134a8:	00c45703          	lhu	a4,12(s0)
   134ac:	02f51263          	bne	a0,a5,134d0 <__sflush_r+0xc8>
   134b0:	0004a683          	lw	a3,0(s1)
   134b4:	01d00793          	li	a5,29
   134b8:	0cd7e463          	bltu	a5,a3,13580 <__sflush_r+0x178>
   134bc:	204007b7          	lui	a5,0x20400
   134c0:	00178793          	addi	a5,a5,1 # 20400001 <__freertos_irq_stack_top+0x203c1981>
   134c4:	00d7d7b3          	srl	a5,a5,a3
   134c8:	0017f793          	andi	a5,a5,1
   134cc:	0a078a63          	beqz	a5,13580 <__sflush_r+0x178>
   134d0:	01042783          	lw	a5,16(s0)
   134d4:	00042223          	sw	zero,4(s0)
   134d8:	00f42023          	sw	a5,0(s0)
   134dc:	01371793          	slli	a5,a4,0x13
   134e0:	0007dc63          	bgez	a5,134f8 <__sflush_r+0xf0>
   134e4:	fff00793          	li	a5,-1
   134e8:	00f51663          	bne	a0,a5,134f4 <__sflush_r+0xec>
   134ec:	0004a783          	lw	a5,0(s1)
   134f0:	00079463          	bnez	a5,134f8 <__sflush_r+0xf0>
   134f4:	04a42a23          	sw	a0,84(s0)
   134f8:	03442583          	lw	a1,52(s0)
   134fc:	0124a023          	sw	s2,0(s1)
   13500:	f40582e3          	beqz	a1,13444 <__sflush_r+0x3c>
   13504:	04440793          	addi	a5,s0,68
   13508:	00f58663          	beq	a1,a5,13514 <__sflush_r+0x10c>
   1350c:	00048513          	mv	a0,s1
   13510:	59c000ef          	jal	ra,13aac <_free_r>
   13514:	02042a23          	sw	zero,52(s0)
   13518:	f2dff06f          	j	13444 <__sflush_r+0x3c>
   1351c:	02042583          	lw	a1,32(s0)
   13520:	00100693          	li	a3,1
   13524:	00000613          	li	a2,0
   13528:	00048513          	mv	a0,s1
   1352c:	000700e7          	jalr	a4 # 300000 <__freertos_irq_stack_top+0x2c1980>
   13530:	fff00793          	li	a5,-1
   13534:	f2f51ae3          	bne	a0,a5,13468 <__sflush_r+0x60>
   13538:	0004a783          	lw	a5,0(s1)
   1353c:	f20786e3          	beqz	a5,13468 <__sflush_r+0x60>
   13540:	01d00713          	li	a4,29
   13544:	00e78663          	beq	a5,a4,13550 <__sflush_r+0x148>
   13548:	01600713          	li	a4,22
   1354c:	00e79663          	bne	a5,a4,13558 <__sflush_r+0x150>
   13550:	0124a023          	sw	s2,0(s1)
   13554:	ef1ff06f          	j	13444 <__sflush_r+0x3c>
   13558:	00c45783          	lhu	a5,12(s0)
   1355c:	0407e793          	ori	a5,a5,64
   13560:	00f41623          	sh	a5,12(s0)
   13564:	01c12083          	lw	ra,28(sp)
   13568:	01812403          	lw	s0,24(sp)
   1356c:	01412483          	lw	s1,20(sp)
   13570:	01012903          	lw	s2,16(sp)
   13574:	00c12983          	lw	s3,12(sp)
   13578:	02010113          	addi	sp,sp,32
   1357c:	00008067          	ret
   13580:	04076713          	ori	a4,a4,64
   13584:	00e41623          	sh	a4,12(s0)
   13588:	fddff06f          	j	13564 <__sflush_r+0x15c>
   1358c:	0105a983          	lw	s3,16(a1)
   13590:	ea098ae3          	beqz	s3,13444 <__sflush_r+0x3c>
   13594:	0005a903          	lw	s2,0(a1)
   13598:	0037f793          	andi	a5,a5,3
   1359c:	0135a023          	sw	s3,0(a1)
   135a0:	41390933          	sub	s2,s2,s3
   135a4:	00000713          	li	a4,0
   135a8:	00079463          	bnez	a5,135b0 <__sflush_r+0x1a8>
   135ac:	0145a703          	lw	a4,20(a1)
   135b0:	00e42423          	sw	a4,8(s0)
   135b4:	e92058e3          	blez	s2,13444 <__sflush_r+0x3c>
   135b8:	02842783          	lw	a5,40(s0)
   135bc:	02042583          	lw	a1,32(s0)
   135c0:	00090693          	mv	a3,s2
   135c4:	00098613          	mv	a2,s3
   135c8:	00048513          	mv	a0,s1
   135cc:	000780e7          	jalr	a5
   135d0:	00a04c63          	bgtz	a0,135e8 <__sflush_r+0x1e0>
   135d4:	00c45783          	lhu	a5,12(s0)
   135d8:	fff00513          	li	a0,-1
   135dc:	0407e793          	ori	a5,a5,64
   135e0:	00f41623          	sh	a5,12(s0)
   135e4:	f81ff06f          	j	13564 <__sflush_r+0x15c>
   135e8:	00a989b3          	add	s3,s3,a0
   135ec:	40a90933          	sub	s2,s2,a0
   135f0:	fc5ff06f          	j	135b4 <__sflush_r+0x1ac>

000135f4 <_fflush_r>:
_fflush_r():
   135f4:	0105a783          	lw	a5,16(a1)
   135f8:	08078a63          	beqz	a5,1368c <_fflush_r+0x98>
   135fc:	fe010113          	addi	sp,sp,-32
   13600:	00812c23          	sw	s0,24(sp)
   13604:	00112e23          	sw	ra,28(sp)
   13608:	00050413          	mv	s0,a0
   1360c:	00050c63          	beqz	a0,13624 <_fflush_r+0x30>
   13610:	01852783          	lw	a5,24(a0)
   13614:	00079863          	bnez	a5,13624 <_fflush_r+0x30>
   13618:	00b12623          	sw	a1,12(sp)
   1361c:	178000ef          	jal	ra,13794 <__sinit>
   13620:	00c12583          	lw	a1,12(sp)
   13624:	00002797          	auipc	a5,0x2
   13628:	d8878793          	addi	a5,a5,-632 # 153ac <__sf_fake_stdin>
   1362c:	02f59263          	bne	a1,a5,13650 <_fflush_r+0x5c>
   13630:	00442583          	lw	a1,4(s0)
   13634:	00c59783          	lh	a5,12(a1)
   13638:	04078063          	beqz	a5,13678 <_fflush_r+0x84>
   1363c:	00040513          	mv	a0,s0
   13640:	01812403          	lw	s0,24(sp)
   13644:	01c12083          	lw	ra,28(sp)
   13648:	02010113          	addi	sp,sp,32
   1364c:	dbdff06f          	j	13408 <__sflush_r>
   13650:	00002797          	auipc	a5,0x2
   13654:	d7c78793          	addi	a5,a5,-644 # 153cc <__sf_fake_stdout>
   13658:	00f59663          	bne	a1,a5,13664 <_fflush_r+0x70>
   1365c:	00842583          	lw	a1,8(s0)
   13660:	fd5ff06f          	j	13634 <_fflush_r+0x40>
   13664:	00002797          	auipc	a5,0x2
   13668:	d2878793          	addi	a5,a5,-728 # 1538c <__sf_fake_stderr>
   1366c:	fcf594e3          	bne	a1,a5,13634 <_fflush_r+0x40>
   13670:	00c42583          	lw	a1,12(s0)
   13674:	fc1ff06f          	j	13634 <_fflush_r+0x40>
   13678:	01c12083          	lw	ra,28(sp)
   1367c:	01812403          	lw	s0,24(sp)
   13680:	00000513          	li	a0,0
   13684:	02010113          	addi	sp,sp,32
   13688:	00008067          	ret
   1368c:	00000513          	li	a0,0
   13690:	00008067          	ret

00013694 <std>:
std():
   13694:	ff010113          	addi	sp,sp,-16
   13698:	00812423          	sw	s0,8(sp)
   1369c:	00112623          	sw	ra,12(sp)
   136a0:	00050413          	mv	s0,a0
   136a4:	00b51623          	sh	a1,12(a0)
   136a8:	00c51723          	sh	a2,14(a0)
   136ac:	00052023          	sw	zero,0(a0)
   136b0:	00052223          	sw	zero,4(a0)
   136b4:	00052423          	sw	zero,8(a0)
   136b8:	06052223          	sw	zero,100(a0)
   136bc:	00052823          	sw	zero,16(a0)
   136c0:	00052a23          	sw	zero,20(a0)
   136c4:	00052c23          	sw	zero,24(a0)
   136c8:	00800613          	li	a2,8
   136cc:	00000593          	li	a1,0
   136d0:	05c50513          	addi	a0,a0,92
   136d4:	3bc000ef          	jal	ra,13a90 <memset>
   136d8:	00001797          	auipc	a5,0x1
   136dc:	87878793          	addi	a5,a5,-1928 # 13f50 <__sread>
   136e0:	02f42223          	sw	a5,36(s0)
   136e4:	00001797          	auipc	a5,0x1
   136e8:	8bc78793          	addi	a5,a5,-1860 # 13fa0 <__swrite>
   136ec:	02f42423          	sw	a5,40(s0)
   136f0:	00001797          	auipc	a5,0x1
   136f4:	93478793          	addi	a5,a5,-1740 # 14024 <__sseek>
   136f8:	02f42623          	sw	a5,44(s0)
   136fc:	00001797          	auipc	a5,0x1
   13700:	98078793          	addi	a5,a5,-1664 # 1407c <__sclose>
   13704:	02842023          	sw	s0,32(s0)
   13708:	02f42823          	sw	a5,48(s0)
   1370c:	00c12083          	lw	ra,12(sp)
   13710:	00812403          	lw	s0,8(sp)
   13714:	01010113          	addi	sp,sp,16
   13718:	00008067          	ret

0001371c <_cleanup_r>:
_cleanup_r():
   1371c:	00000597          	auipc	a1,0x0
   13720:	ed858593          	addi	a1,a1,-296 # 135f4 <_fflush_r>
   13724:	2140006f          	j	13938 <_fwalk_reent>

00013728 <__sfmoreglue>:
__sfmoreglue():
   13728:	ff010113          	addi	sp,sp,-16
   1372c:	00912223          	sw	s1,4(sp)
   13730:	06800613          	li	a2,104
   13734:	fff58493          	addi	s1,a1,-1
   13738:	02c484b3          	mul	s1,s1,a2
   1373c:	01212023          	sw	s2,0(sp)
   13740:	00058913          	mv	s2,a1
   13744:	00812423          	sw	s0,8(sp)
   13748:	00112623          	sw	ra,12(sp)
   1374c:	07448593          	addi	a1,s1,116
   13750:	468000ef          	jal	ra,13bb8 <_malloc_r>
   13754:	00050413          	mv	s0,a0
   13758:	02050063          	beqz	a0,13778 <__sfmoreglue+0x50>
   1375c:	00052023          	sw	zero,0(a0)
   13760:	01252223          	sw	s2,4(a0)
   13764:	00c50513          	addi	a0,a0,12
   13768:	00a42423          	sw	a0,8(s0)
   1376c:	06848613          	addi	a2,s1,104
   13770:	00000593          	li	a1,0
   13774:	31c000ef          	jal	ra,13a90 <memset>
   13778:	00040513          	mv	a0,s0
   1377c:	00c12083          	lw	ra,12(sp)
   13780:	00812403          	lw	s0,8(sp)
   13784:	00412483          	lw	s1,4(sp)
   13788:	00012903          	lw	s2,0(sp)
   1378c:	01010113          	addi	sp,sp,16
   13790:	00008067          	ret

00013794 <__sinit>:
__sinit():
   13794:	01852783          	lw	a5,24(a0)
   13798:	0a079663          	bnez	a5,13844 <__sinit+0xb0>
   1379c:	ff010113          	addi	sp,sp,-16
   137a0:	00112623          	sw	ra,12(sp)
   137a4:	00812423          	sw	s0,8(sp)
   137a8:	00000797          	auipc	a5,0x0
   137ac:	f7478793          	addi	a5,a5,-140 # 1371c <_cleanup_r>
   137b0:	02f52423          	sw	a5,40(a0)
   137b4:	00002797          	auipc	a5,0x2
   137b8:	90c78793          	addi	a5,a5,-1780 # 150c0 <_global_impure_ptr>
   137bc:	0007a783          	lw	a5,0(a5)
   137c0:	04052423          	sw	zero,72(a0)
   137c4:	04052623          	sw	zero,76(a0)
   137c8:	04052823          	sw	zero,80(a0)
   137cc:	00f51663          	bne	a0,a5,137d8 <__sinit+0x44>
   137d0:	00100793          	li	a5,1
   137d4:	00f52c23          	sw	a5,24(a0)
   137d8:	00050413          	mv	s0,a0
   137dc:	06c000ef          	jal	ra,13848 <__sfp>
   137e0:	00a42223          	sw	a0,4(s0)
   137e4:	00040513          	mv	a0,s0
   137e8:	060000ef          	jal	ra,13848 <__sfp>
   137ec:	00a42423          	sw	a0,8(s0)
   137f0:	00040513          	mv	a0,s0
   137f4:	054000ef          	jal	ra,13848 <__sfp>
   137f8:	00a42623          	sw	a0,12(s0)
   137fc:	00442503          	lw	a0,4(s0)
   13800:	00000613          	li	a2,0
   13804:	00400593          	li	a1,4
   13808:	e8dff0ef          	jal	ra,13694 <std>
   1380c:	00842503          	lw	a0,8(s0)
   13810:	00100613          	li	a2,1
   13814:	00900593          	li	a1,9
   13818:	e7dff0ef          	jal	ra,13694 <std>
   1381c:	00c42503          	lw	a0,12(s0)
   13820:	00200613          	li	a2,2
   13824:	01200593          	li	a1,18
   13828:	e6dff0ef          	jal	ra,13694 <std>
   1382c:	00100793          	li	a5,1
   13830:	00f42c23          	sw	a5,24(s0)
   13834:	00c12083          	lw	ra,12(sp)
   13838:	00812403          	lw	s0,8(sp)
   1383c:	01010113          	addi	sp,sp,16
   13840:	00008067          	ret
   13844:	00008067          	ret

00013848 <__sfp>:
__sfp():
   13848:	ff010113          	addi	sp,sp,-16
   1384c:	00002797          	auipc	a5,0x2
   13850:	87478793          	addi	a5,a5,-1932 # 150c0 <_global_impure_ptr>
   13854:	00912223          	sw	s1,4(sp)
   13858:	0007a483          	lw	s1,0(a5)
   1385c:	01212023          	sw	s2,0(sp)
   13860:	00112623          	sw	ra,12(sp)
   13864:	0184a783          	lw	a5,24(s1)
   13868:	00812423          	sw	s0,8(sp)
   1386c:	00050913          	mv	s2,a0
   13870:	00079663          	bnez	a5,1387c <__sfp+0x34>
   13874:	00048513          	mv	a0,s1
   13878:	f1dff0ef          	jal	ra,13794 <__sinit>
   1387c:	04848493          	addi	s1,s1,72
   13880:	0084a403          	lw	s0,8(s1)
   13884:	0044a783          	lw	a5,4(s1)
   13888:	fff78793          	addi	a5,a5,-1
   1388c:	0007da63          	bgez	a5,138a0 <__sfp+0x58>
   13890:	0004a783          	lw	a5,0(s1)
   13894:	08078063          	beqz	a5,13914 <__sfp+0xcc>
   13898:	0004a483          	lw	s1,0(s1)
   1389c:	fe5ff06f          	j	13880 <__sfp+0x38>
   138a0:	00c41703          	lh	a4,12(s0)
   138a4:	06071463          	bnez	a4,1390c <__sfp+0xc4>
   138a8:	ffff07b7          	lui	a5,0xffff0
   138ac:	00178793          	addi	a5,a5,1 # ffff0001 <__freertos_irq_stack_top+0xfffb1981>
   138b0:	06042223          	sw	zero,100(s0)
   138b4:	00042023          	sw	zero,0(s0)
   138b8:	00042223          	sw	zero,4(s0)
   138bc:	00042423          	sw	zero,8(s0)
   138c0:	00f42623          	sw	a5,12(s0)
   138c4:	00042823          	sw	zero,16(s0)
   138c8:	00042a23          	sw	zero,20(s0)
   138cc:	00042c23          	sw	zero,24(s0)
   138d0:	00800613          	li	a2,8
   138d4:	00000593          	li	a1,0
   138d8:	05c40513          	addi	a0,s0,92
   138dc:	1b4000ef          	jal	ra,13a90 <memset>
   138e0:	02042a23          	sw	zero,52(s0)
   138e4:	02042c23          	sw	zero,56(s0)
   138e8:	04042423          	sw	zero,72(s0)
   138ec:	04042623          	sw	zero,76(s0)
   138f0:	00040513          	mv	a0,s0
   138f4:	00c12083          	lw	ra,12(sp)
   138f8:	00812403          	lw	s0,8(sp)
   138fc:	00412483          	lw	s1,4(sp)
   13900:	00012903          	lw	s2,0(sp)
   13904:	01010113          	addi	sp,sp,16
   13908:	00008067          	ret
   1390c:	06840413          	addi	s0,s0,104
   13910:	f79ff06f          	j	13888 <__sfp+0x40>
   13914:	00400593          	li	a1,4
   13918:	00090513          	mv	a0,s2
   1391c:	e0dff0ef          	jal	ra,13728 <__sfmoreglue>
   13920:	00a4a023          	sw	a0,0(s1)
   13924:	00050413          	mv	s0,a0
   13928:	f60518e3          	bnez	a0,13898 <__sfp+0x50>
   1392c:	00c00793          	li	a5,12
   13930:	00f92023          	sw	a5,0(s2)
   13934:	fbdff06f          	j	138f0 <__sfp+0xa8>

00013938 <_fwalk_reent>:
_fwalk_reent():
   13938:	fd010113          	addi	sp,sp,-48
   1393c:	02812423          	sw	s0,40(sp)
   13940:	03212023          	sw	s2,32(sp)
   13944:	01412c23          	sw	s4,24(sp)
   13948:	01512a23          	sw	s5,20(sp)
   1394c:	01612823          	sw	s6,16(sp)
   13950:	01712623          	sw	s7,12(sp)
   13954:	02112623          	sw	ra,44(sp)
   13958:	02912223          	sw	s1,36(sp)
   1395c:	01312e23          	sw	s3,28(sp)
   13960:	00050a13          	mv	s4,a0
   13964:	00058a93          	mv	s5,a1
   13968:	04850413          	addi	s0,a0,72
   1396c:	00000913          	li	s2,0
   13970:	00100b13          	li	s6,1
   13974:	fff00b93          	li	s7,-1
   13978:	02041a63          	bnez	s0,139ac <_fwalk_reent+0x74>
   1397c:	02c12083          	lw	ra,44(sp)
   13980:	02812403          	lw	s0,40(sp)
   13984:	00090513          	mv	a0,s2
   13988:	02412483          	lw	s1,36(sp)
   1398c:	02012903          	lw	s2,32(sp)
   13990:	01c12983          	lw	s3,28(sp)
   13994:	01812a03          	lw	s4,24(sp)
   13998:	01412a83          	lw	s5,20(sp)
   1399c:	01012b03          	lw	s6,16(sp)
   139a0:	00c12b83          	lw	s7,12(sp)
   139a4:	03010113          	addi	sp,sp,48
   139a8:	00008067          	ret
   139ac:	00842483          	lw	s1,8(s0)
   139b0:	00442983          	lw	s3,4(s0)
   139b4:	fff98993          	addi	s3,s3,-1
   139b8:	0009d663          	bgez	s3,139c4 <_fwalk_reent+0x8c>
   139bc:	00042403          	lw	s0,0(s0)
   139c0:	fb9ff06f          	j	13978 <_fwalk_reent+0x40>
   139c4:	00c4d783          	lhu	a5,12(s1)
   139c8:	00fb7e63          	bgeu	s6,a5,139e4 <_fwalk_reent+0xac>
   139cc:	00e49783          	lh	a5,14(s1)
   139d0:	01778a63          	beq	a5,s7,139e4 <_fwalk_reent+0xac>
   139d4:	00048593          	mv	a1,s1
   139d8:	000a0513          	mv	a0,s4
   139dc:	000a80e7          	jalr	s5
   139e0:	00a96933          	or	s2,s2,a0
   139e4:	06848493          	addi	s1,s1,104
   139e8:	fcdff06f          	j	139b4 <_fwalk_reent+0x7c>

000139ec <__libc_init_array>:
__libc_init_array():
   139ec:	ff010113          	addi	sp,sp,-16
   139f0:	00001797          	auipc	a5,0x1
   139f4:	6d478793          	addi	a5,a5,1748 # 150c4 <__init_array_end>
   139f8:	00812423          	sw	s0,8(sp)
   139fc:	00001417          	auipc	s0,0x1
   13a00:	6c840413          	addi	s0,s0,1736 # 150c4 <__init_array_end>
   13a04:	40f40433          	sub	s0,s0,a5
   13a08:	00912223          	sw	s1,4(sp)
   13a0c:	01212023          	sw	s2,0(sp)
   13a10:	00112623          	sw	ra,12(sp)
   13a14:	40245413          	srai	s0,s0,0x2
   13a18:	00000493          	li	s1,0
   13a1c:	00078913          	mv	s2,a5
   13a20:	04849063          	bne	s1,s0,13a60 <__libc_init_array+0x74>
   13a24:	00001797          	auipc	a5,0x1
   13a28:	6a078793          	addi	a5,a5,1696 # 150c4 <__init_array_end>
   13a2c:	00001417          	auipc	s0,0x1
   13a30:	69840413          	addi	s0,s0,1688 # 150c4 <__init_array_end>
   13a34:	40f40433          	sub	s0,s0,a5
   13a38:	40245413          	srai	s0,s0,0x2
   13a3c:	00000493          	li	s1,0
   13a40:	00078913          	mv	s2,a5
   13a44:	02849a63          	bne	s1,s0,13a78 <__libc_init_array+0x8c>
   13a48:	00c12083          	lw	ra,12(sp)
   13a4c:	00812403          	lw	s0,8(sp)
   13a50:	00412483          	lw	s1,4(sp)
   13a54:	00012903          	lw	s2,0(sp)
   13a58:	01010113          	addi	sp,sp,16
   13a5c:	00008067          	ret
   13a60:	00249793          	slli	a5,s1,0x2
   13a64:	00f907b3          	add	a5,s2,a5
   13a68:	0007a783          	lw	a5,0(a5)
   13a6c:	00148493          	addi	s1,s1,1
   13a70:	000780e7          	jalr	a5
   13a74:	fadff06f          	j	13a20 <__libc_init_array+0x34>
   13a78:	00249793          	slli	a5,s1,0x2
   13a7c:	00f907b3          	add	a5,s2,a5
   13a80:	0007a783          	lw	a5,0(a5)
   13a84:	00148493          	addi	s1,s1,1
   13a88:	000780e7          	jalr	a5
   13a8c:	fb9ff06f          	j	13a44 <__libc_init_array+0x58>

00013a90 <memset>:
memset():
   13a90:	00050313          	mv	t1,a0
   13a94:	00060a63          	beqz	a2,13aa8 <memset+0x18>
   13a98:	00b30023          	sb	a1,0(t1)
   13a9c:	fff60613          	addi	a2,a2,-1
   13aa0:	00130313          	addi	t1,t1,1
   13aa4:	fe061ae3          	bnez	a2,13a98 <memset+0x8>
   13aa8:	00008067          	ret

00013aac <_free_r>:
_free_r():
   13aac:	10058463          	beqz	a1,13bb4 <_free_r+0x108>
   13ab0:	ffc5a783          	lw	a5,-4(a1)
   13ab4:	ff010113          	addi	sp,sp,-16
   13ab8:	00812423          	sw	s0,8(sp)
   13abc:	00112623          	sw	ra,12(sp)
   13ac0:	00912223          	sw	s1,4(sp)
   13ac4:	ffc58413          	addi	s0,a1,-4
   13ac8:	0007d463          	bgez	a5,13ad0 <_free_r+0x24>
   13acc:	00f40433          	add	s0,s0,a5
   13ad0:	00050493          	mv	s1,a0
   13ad4:	2dd000ef          	jal	ra,145b0 <__malloc_lock>
   13ad8:	00002797          	auipc	a5,0x2
   13adc:	aa078793          	addi	a5,a5,-1376 # 15578 <__malloc_free_list>
   13ae0:	0007a783          	lw	a5,0(a5)
   13ae4:	02079463          	bnez	a5,13b0c <_free_r+0x60>
   13ae8:	00042223          	sw	zero,4(s0)
   13aec:	00002797          	auipc	a5,0x2
   13af0:	a887a623          	sw	s0,-1396(a5) # 15578 <__malloc_free_list>
   13af4:	00812403          	lw	s0,8(sp)
   13af8:	00c12083          	lw	ra,12(sp)
   13afc:	00048513          	mv	a0,s1
   13b00:	00412483          	lw	s1,4(sp)
   13b04:	01010113          	addi	sp,sp,16
   13b08:	2ad0006f          	j	145b4 <__malloc_unlock>
   13b0c:	02f47663          	bgeu	s0,a5,13b38 <_free_r+0x8c>
   13b10:	00042683          	lw	a3,0(s0)
   13b14:	00d40733          	add	a4,s0,a3
   13b18:	00e79a63          	bne	a5,a4,13b2c <_free_r+0x80>
   13b1c:	0007a703          	lw	a4,0(a5)
   13b20:	0047a783          	lw	a5,4(a5)
   13b24:	00d70733          	add	a4,a4,a3
   13b28:	00e42023          	sw	a4,0(s0)
   13b2c:	00f42223          	sw	a5,4(s0)
   13b30:	fbdff06f          	j	13aec <_free_r+0x40>
   13b34:	00070793          	mv	a5,a4
   13b38:	0047a703          	lw	a4,4(a5)
   13b3c:	00070463          	beqz	a4,13b44 <_free_r+0x98>
   13b40:	fee47ae3          	bgeu	s0,a4,13b34 <_free_r+0x88>
   13b44:	0007a683          	lw	a3,0(a5)
   13b48:	00d78633          	add	a2,a5,a3
   13b4c:	02861863          	bne	a2,s0,13b7c <_free_r+0xd0>
   13b50:	00042603          	lw	a2,0(s0)
   13b54:	00c686b3          	add	a3,a3,a2
   13b58:	00d7a023          	sw	a3,0(a5)
   13b5c:	00d78633          	add	a2,a5,a3
   13b60:	f8c71ae3          	bne	a4,a2,13af4 <_free_r+0x48>
   13b64:	00072603          	lw	a2,0(a4)
   13b68:	00472703          	lw	a4,4(a4)
   13b6c:	00d606b3          	add	a3,a2,a3
   13b70:	00d7a023          	sw	a3,0(a5)
   13b74:	00e7a223          	sw	a4,4(a5)
   13b78:	f7dff06f          	j	13af4 <_free_r+0x48>
   13b7c:	00c47863          	bgeu	s0,a2,13b8c <_free_r+0xe0>
   13b80:	00c00793          	li	a5,12
   13b84:	00f4a023          	sw	a5,0(s1)
   13b88:	f6dff06f          	j	13af4 <_free_r+0x48>
   13b8c:	00042603          	lw	a2,0(s0)
   13b90:	00c406b3          	add	a3,s0,a2
   13b94:	00d71a63          	bne	a4,a3,13ba8 <_free_r+0xfc>
   13b98:	00072683          	lw	a3,0(a4)
   13b9c:	00472703          	lw	a4,4(a4)
   13ba0:	00c686b3          	add	a3,a3,a2
   13ba4:	00d42023          	sw	a3,0(s0)
   13ba8:	00e42223          	sw	a4,4(s0)
   13bac:	0087a223          	sw	s0,4(a5)
   13bb0:	f45ff06f          	j	13af4 <_free_r+0x48>
   13bb4:	00008067          	ret

00013bb8 <_malloc_r>:
_malloc_r():
   13bb8:	fe010113          	addi	sp,sp,-32
   13bbc:	00912a23          	sw	s1,20(sp)
   13bc0:	00358493          	addi	s1,a1,3
   13bc4:	ffc4f493          	andi	s1,s1,-4
   13bc8:	00112e23          	sw	ra,28(sp)
   13bcc:	00812c23          	sw	s0,24(sp)
   13bd0:	01212823          	sw	s2,16(sp)
   13bd4:	01312623          	sw	s3,12(sp)
   13bd8:	00848493          	addi	s1,s1,8
   13bdc:	00c00793          	li	a5,12
   13be0:	06f4fa63          	bgeu	s1,a5,13c54 <_malloc_r+0x9c>
   13be4:	00c00493          	li	s1,12
   13be8:	06b4e863          	bltu	s1,a1,13c58 <_malloc_r+0xa0>
   13bec:	00050913          	mv	s2,a0
   13bf0:	1c1000ef          	jal	ra,145b0 <__malloc_lock>
   13bf4:	00002797          	auipc	a5,0x2
   13bf8:	98478793          	addi	a5,a5,-1660 # 15578 <__malloc_free_list>
   13bfc:	0007a703          	lw	a4,0(a5)
   13c00:	00070413          	mv	s0,a4
   13c04:	06041e63          	bnez	s0,13c80 <_malloc_r+0xc8>
   13c08:	00002797          	auipc	a5,0x2
   13c0c:	97478793          	addi	a5,a5,-1676 # 1557c <__malloc_sbrk_start>
   13c10:	0007a783          	lw	a5,0(a5)
   13c14:	00079c63          	bnez	a5,13c2c <_malloc_r+0x74>
   13c18:	00000593          	li	a1,0
   13c1c:	00090513          	mv	a0,s2
   13c20:	2e4000ef          	jal	ra,13f04 <_sbrk_r>
   13c24:	00002797          	auipc	a5,0x2
   13c28:	94a7ac23          	sw	a0,-1704(a5) # 1557c <__malloc_sbrk_start>
   13c2c:	00048593          	mv	a1,s1
   13c30:	00090513          	mv	a0,s2
   13c34:	2d0000ef          	jal	ra,13f04 <_sbrk_r>
   13c38:	fff00993          	li	s3,-1
   13c3c:	0b351c63          	bne	a0,s3,13cf4 <_malloc_r+0x13c>
   13c40:	00c00793          	li	a5,12
   13c44:	00f92023          	sw	a5,0(s2)
   13c48:	00090513          	mv	a0,s2
   13c4c:	169000ef          	jal	ra,145b4 <__malloc_unlock>
   13c50:	0100006f          	j	13c60 <_malloc_r+0xa8>
   13c54:	f804dae3          	bgez	s1,13be8 <_malloc_r+0x30>
   13c58:	00c00793          	li	a5,12
   13c5c:	00f52023          	sw	a5,0(a0)
   13c60:	00000513          	li	a0,0
   13c64:	01c12083          	lw	ra,28(sp)
   13c68:	01812403          	lw	s0,24(sp)
   13c6c:	01412483          	lw	s1,20(sp)
   13c70:	01012903          	lw	s2,16(sp)
   13c74:	00c12983          	lw	s3,12(sp)
   13c78:	02010113          	addi	sp,sp,32
   13c7c:	00008067          	ret
   13c80:	00042783          	lw	a5,0(s0)
   13c84:	409787b3          	sub	a5,a5,s1
   13c88:	0607c063          	bltz	a5,13ce8 <_malloc_r+0x130>
   13c8c:	00b00693          	li	a3,11
   13c90:	00f6fa63          	bgeu	a3,a5,13ca4 <_malloc_r+0xec>
   13c94:	00f42023          	sw	a5,0(s0)
   13c98:	00f40433          	add	s0,s0,a5
   13c9c:	00942023          	sw	s1,0(s0)
   13ca0:	0140006f          	j	13cb4 <_malloc_r+0xfc>
   13ca4:	00442783          	lw	a5,4(s0)
   13ca8:	02871c63          	bne	a4,s0,13ce0 <_malloc_r+0x128>
   13cac:	00002717          	auipc	a4,0x2
   13cb0:	8cf72623          	sw	a5,-1844(a4) # 15578 <__malloc_free_list>
   13cb4:	00090513          	mv	a0,s2
   13cb8:	0fd000ef          	jal	ra,145b4 <__malloc_unlock>
   13cbc:	00b40513          	addi	a0,s0,11
   13cc0:	00440793          	addi	a5,s0,4
   13cc4:	ff857513          	andi	a0,a0,-8
   13cc8:	40f50733          	sub	a4,a0,a5
   13ccc:	f8070ce3          	beqz	a4,13c64 <_malloc_r+0xac>
   13cd0:	00e40433          	add	s0,s0,a4
   13cd4:	40a787b3          	sub	a5,a5,a0
   13cd8:	00f42023          	sw	a5,0(s0)
   13cdc:	f89ff06f          	j	13c64 <_malloc_r+0xac>
   13ce0:	00f72223          	sw	a5,4(a4)
   13ce4:	fd1ff06f          	j	13cb4 <_malloc_r+0xfc>
   13ce8:	00040713          	mv	a4,s0
   13cec:	00442403          	lw	s0,4(s0)
   13cf0:	f15ff06f          	j	13c04 <_malloc_r+0x4c>
   13cf4:	00350413          	addi	s0,a0,3
   13cf8:	ffc47413          	andi	s0,s0,-4
   13cfc:	fa8500e3          	beq	a0,s0,13c9c <_malloc_r+0xe4>
   13d00:	40a405b3          	sub	a1,s0,a0
   13d04:	00090513          	mv	a0,s2
   13d08:	1fc000ef          	jal	ra,13f04 <_sbrk_r>
   13d0c:	f93518e3          	bne	a0,s3,13c9c <_malloc_r+0xe4>
   13d10:	f31ff06f          	j	13c40 <_malloc_r+0x88>

00013d14 <iprintf>:
printf():
   13d14:	fc010113          	addi	sp,sp,-64
   13d18:	02f12a23          	sw	a5,52(sp)
   13d1c:	02b12223          	sw	a1,36(sp)
   13d20:	02c12423          	sw	a2,40(sp)
   13d24:	02d12623          	sw	a3,44(sp)
   13d28:	02e12823          	sw	a4,48(sp)
   13d2c:	03012c23          	sw	a6,56(sp)
   13d30:	03112e23          	sw	a7,60(sp)
   13d34:	00002797          	auipc	a5,0x2
   13d38:	83078793          	addi	a5,a5,-2000 # 15564 <_impure_ptr>
   13d3c:	00812c23          	sw	s0,24(sp)
   13d40:	0007a403          	lw	s0,0(a5)
   13d44:	00912a23          	sw	s1,20(sp)
   13d48:	00112e23          	sw	ra,28(sp)
   13d4c:	00050493          	mv	s1,a0
   13d50:	00040a63          	beqz	s0,13d64 <iprintf+0x50>
   13d54:	01842783          	lw	a5,24(s0)
   13d58:	00079663          	bnez	a5,13d64 <iprintf+0x50>
   13d5c:	00040513          	mv	a0,s0
   13d60:	a35ff0ef          	jal	ra,13794 <__sinit>
   13d64:	00842583          	lw	a1,8(s0)
   13d68:	02410693          	addi	a3,sp,36
   13d6c:	00048613          	mv	a2,s1
   13d70:	00040513          	mv	a0,s0
   13d74:	00d12623          	sw	a3,12(sp)
   13d78:	0f1000ef          	jal	ra,14668 <_vfiprintf_r>
   13d7c:	01c12083          	lw	ra,28(sp)
   13d80:	01812403          	lw	s0,24(sp)
   13d84:	01412483          	lw	s1,20(sp)
   13d88:	04010113          	addi	sp,sp,64
   13d8c:	00008067          	ret

00013d90 <_puts_r>:
_puts_r():
   13d90:	fe010113          	addi	sp,sp,-32
   13d94:	00912a23          	sw	s1,20(sp)
   13d98:	01212823          	sw	s2,16(sp)
   13d9c:	00112e23          	sw	ra,28(sp)
   13da0:	00812c23          	sw	s0,24(sp)
   13da4:	01312623          	sw	s3,12(sp)
   13da8:	01412423          	sw	s4,8(sp)
   13dac:	00050493          	mv	s1,a0
   13db0:	00058913          	mv	s2,a1
   13db4:	00050863          	beqz	a0,13dc4 <_puts_r+0x34>
   13db8:	01852783          	lw	a5,24(a0)
   13dbc:	00079463          	bnez	a5,13dc4 <_puts_r+0x34>
   13dc0:	9d5ff0ef          	jal	ra,13794 <__sinit>
   13dc4:	0184a783          	lw	a5,24(s1)
   13dc8:	0084a403          	lw	s0,8(s1)
   13dcc:	00079663          	bnez	a5,13dd8 <_puts_r+0x48>
   13dd0:	00048513          	mv	a0,s1
   13dd4:	9c1ff0ef          	jal	ra,13794 <__sinit>
   13dd8:	00001797          	auipc	a5,0x1
   13ddc:	5d478793          	addi	a5,a5,1492 # 153ac <__sf_fake_stdin>
   13de0:	04f41e63          	bne	s0,a5,13e3c <_puts_r+0xac>
   13de4:	0044a403          	lw	s0,4(s1)
   13de8:	00c45783          	lhu	a5,12(s0)
   13dec:	0087f793          	andi	a5,a5,8
   13df0:	06078a63          	beqz	a5,13e64 <_puts_r+0xd4>
   13df4:	01042783          	lw	a5,16(s0)
   13df8:	06078663          	beqz	a5,13e64 <_puts_r+0xd4>
   13dfc:	fff00993          	li	s3,-1
   13e00:	00a00a13          	li	s4,10
   13e04:	00842783          	lw	a5,8(s0)
   13e08:	00094583          	lbu	a1,0(s2)
   13e0c:	fff78793          	addi	a5,a5,-1
   13e10:	08059463          	bnez	a1,13e98 <_puts_r+0x108>
   13e14:	00f42423          	sw	a5,8(s0)
   13e18:	0c07d063          	bgez	a5,13ed8 <_puts_r+0x148>
   13e1c:	00040613          	mv	a2,s0
   13e20:	00a00593          	li	a1,10
   13e24:	00048513          	mv	a0,s1
   13e28:	260000ef          	jal	ra,14088 <__swbuf_r>
   13e2c:	fff00793          	li	a5,-1
   13e30:	04f50263          	beq	a0,a5,13e74 <_puts_r+0xe4>
   13e34:	00a00513          	li	a0,10
   13e38:	0400006f          	j	13e78 <_puts_r+0xe8>
   13e3c:	00001797          	auipc	a5,0x1
   13e40:	59078793          	addi	a5,a5,1424 # 153cc <__sf_fake_stdout>
   13e44:	00f41663          	bne	s0,a5,13e50 <_puts_r+0xc0>
   13e48:	0084a403          	lw	s0,8(s1)
   13e4c:	f9dff06f          	j	13de8 <_puts_r+0x58>
   13e50:	00001797          	auipc	a5,0x1
   13e54:	53c78793          	addi	a5,a5,1340 # 1538c <__sf_fake_stderr>
   13e58:	f8f418e3          	bne	s0,a5,13de8 <_puts_r+0x58>
   13e5c:	00c4a403          	lw	s0,12(s1)
   13e60:	f89ff06f          	j	13de8 <_puts_r+0x58>
   13e64:	00040593          	mv	a1,s0
   13e68:	00048513          	mv	a0,s1
   13e6c:	3a8000ef          	jal	ra,14214 <__swsetup_r>
   13e70:	f80506e3          	beqz	a0,13dfc <_puts_r+0x6c>
   13e74:	fff00513          	li	a0,-1
   13e78:	01c12083          	lw	ra,28(sp)
   13e7c:	01812403          	lw	s0,24(sp)
   13e80:	01412483          	lw	s1,20(sp)
   13e84:	01012903          	lw	s2,16(sp)
   13e88:	00c12983          	lw	s3,12(sp)
   13e8c:	00812a03          	lw	s4,8(sp)
   13e90:	02010113          	addi	sp,sp,32
   13e94:	00008067          	ret
   13e98:	00f42423          	sw	a5,8(s0)
   13e9c:	00190913          	addi	s2,s2,1
   13ea0:	0007d863          	bgez	a5,13eb0 <_puts_r+0x120>
   13ea4:	01842703          	lw	a4,24(s0)
   13ea8:	00e7ce63          	blt	a5,a4,13ec4 <_puts_r+0x134>
   13eac:	01458c63          	beq	a1,s4,13ec4 <_puts_r+0x134>
   13eb0:	00042783          	lw	a5,0(s0)
   13eb4:	00178713          	addi	a4,a5,1
   13eb8:	00e42023          	sw	a4,0(s0)
   13ebc:	00b78023          	sb	a1,0(a5)
   13ec0:	f45ff06f          	j	13e04 <_puts_r+0x74>
   13ec4:	00040613          	mv	a2,s0
   13ec8:	00048513          	mv	a0,s1
   13ecc:	1bc000ef          	jal	ra,14088 <__swbuf_r>
   13ed0:	f3351ae3          	bne	a0,s3,13e04 <_puts_r+0x74>
   13ed4:	fa1ff06f          	j	13e74 <_puts_r+0xe4>
   13ed8:	00042783          	lw	a5,0(s0)
   13edc:	00178713          	addi	a4,a5,1
   13ee0:	00e42023          	sw	a4,0(s0)
   13ee4:	00a00713          	li	a4,10
   13ee8:	00e78023          	sb	a4,0(a5)
   13eec:	f49ff06f          	j	13e34 <_puts_r+0xa4>

00013ef0 <puts>:
puts():
   13ef0:	00001797          	auipc	a5,0x1
   13ef4:	67478793          	addi	a5,a5,1652 # 15564 <_impure_ptr>
   13ef8:	00050593          	mv	a1,a0
   13efc:	0007a503          	lw	a0,0(a5)
   13f00:	e91ff06f          	j	13d90 <_puts_r>

00013f04 <_sbrk_r>:
_sbrk_r():
   13f04:	ff010113          	addi	sp,sp,-16
   13f08:	00812423          	sw	s0,8(sp)
   13f0c:	00050413          	mv	s0,a0
   13f10:	00058513          	mv	a0,a1
   13f14:	00001797          	auipc	a5,0x1
   13f18:	7407ae23          	sw	zero,1884(a5) # 15670 <errno>
   13f1c:	00112623          	sw	ra,12(sp)
   13f20:	ba8fc0ef          	jal	ra,102c8 <_sbrk>
   13f24:	fff00793          	li	a5,-1
   13f28:	00f51c63          	bne	a0,a5,13f40 <_sbrk_r+0x3c>
   13f2c:	00001797          	auipc	a5,0x1
   13f30:	74478793          	addi	a5,a5,1860 # 15670 <errno>
   13f34:	0007a783          	lw	a5,0(a5)
   13f38:	00078463          	beqz	a5,13f40 <_sbrk_r+0x3c>
   13f3c:	00f42023          	sw	a5,0(s0)
   13f40:	00c12083          	lw	ra,12(sp)
   13f44:	00812403          	lw	s0,8(sp)
   13f48:	01010113          	addi	sp,sp,16
   13f4c:	00008067          	ret

00013f50 <__sread>:
__sread():
   13f50:	ff010113          	addi	sp,sp,-16
   13f54:	00812423          	sw	s0,8(sp)
   13f58:	00058413          	mv	s0,a1
   13f5c:	00e59583          	lh	a1,14(a1)
   13f60:	00112623          	sw	ra,12(sp)
   13f64:	048010ef          	jal	ra,14fac <_read_r>
   13f68:	02054063          	bltz	a0,13f88 <__sread+0x38>
   13f6c:	05442783          	lw	a5,84(s0)
   13f70:	00a787b3          	add	a5,a5,a0
   13f74:	04f42a23          	sw	a5,84(s0)
   13f78:	00c12083          	lw	ra,12(sp)
   13f7c:	00812403          	lw	s0,8(sp)
   13f80:	01010113          	addi	sp,sp,16
   13f84:	00008067          	ret
   13f88:	00c45783          	lhu	a5,12(s0)
   13f8c:	fffff737          	lui	a4,0xfffff
   13f90:	fff70713          	addi	a4,a4,-1 # ffffefff <__freertos_irq_stack_top+0xfffc097f>
   13f94:	00e7f7b3          	and	a5,a5,a4
   13f98:	00f41623          	sh	a5,12(s0)
   13f9c:	fddff06f          	j	13f78 <__sread+0x28>

00013fa0 <__swrite>:
__swrite():
   13fa0:	00c5d783          	lhu	a5,12(a1)
   13fa4:	fe010113          	addi	sp,sp,-32
   13fa8:	00812c23          	sw	s0,24(sp)
   13fac:	00912a23          	sw	s1,20(sp)
   13fb0:	01212823          	sw	s2,16(sp)
   13fb4:	01312623          	sw	s3,12(sp)
   13fb8:	00112e23          	sw	ra,28(sp)
   13fbc:	1007f793          	andi	a5,a5,256
   13fc0:	00050493          	mv	s1,a0
   13fc4:	00058413          	mv	s0,a1
   13fc8:	00060913          	mv	s2,a2
   13fcc:	00068993          	mv	s3,a3
   13fd0:	00078a63          	beqz	a5,13fe4 <__swrite+0x44>
   13fd4:	00e59583          	lh	a1,14(a1)
   13fd8:	00200693          	li	a3,2
   13fdc:	00000613          	li	a2,0
   13fe0:	400000ef          	jal	ra,143e0 <_lseek_r>
   13fe4:	00c45783          	lhu	a5,12(s0)
   13fe8:	fffff737          	lui	a4,0xfffff
   13fec:	fff70713          	addi	a4,a4,-1 # ffffefff <__freertos_irq_stack_top+0xfffc097f>
   13ff0:	00e7f7b3          	and	a5,a5,a4
   13ff4:	00f41623          	sh	a5,12(s0)
   13ff8:	00e41583          	lh	a1,14(s0)
   13ffc:	01812403          	lw	s0,24(sp)
   14000:	01c12083          	lw	ra,28(sp)
   14004:	00098693          	mv	a3,s3
   14008:	00090613          	mv	a2,s2
   1400c:	00c12983          	lw	s3,12(sp)
   14010:	01012903          	lw	s2,16(sp)
   14014:	00048513          	mv	a0,s1
   14018:	01412483          	lw	s1,20(sp)
   1401c:	02010113          	addi	sp,sp,32
   14020:	1a00006f          	j	141c0 <_write_r>

00014024 <__sseek>:
__sseek():
   14024:	ff010113          	addi	sp,sp,-16
   14028:	00812423          	sw	s0,8(sp)
   1402c:	00058413          	mv	s0,a1
   14030:	00e59583          	lh	a1,14(a1)
   14034:	00112623          	sw	ra,12(sp)
   14038:	3a8000ef          	jal	ra,143e0 <_lseek_r>
   1403c:	fff00793          	li	a5,-1
   14040:	00c45703          	lhu	a4,12(s0)
   14044:	02f51263          	bne	a0,a5,14068 <__sseek+0x44>
   14048:	fffff7b7          	lui	a5,0xfffff
   1404c:	fff78793          	addi	a5,a5,-1 # ffffefff <__freertos_irq_stack_top+0xfffc097f>
   14050:	00e7f7b3          	and	a5,a5,a4
   14054:	00f41623          	sh	a5,12(s0)
   14058:	00c12083          	lw	ra,12(sp)
   1405c:	00812403          	lw	s0,8(sp)
   14060:	01010113          	addi	sp,sp,16
   14064:	00008067          	ret
   14068:	000017b7          	lui	a5,0x1
   1406c:	00f767b3          	or	a5,a4,a5
   14070:	00f41623          	sh	a5,12(s0)
   14074:	04a42a23          	sw	a0,84(s0)
   14078:	fe1ff06f          	j	14058 <__sseek+0x34>

0001407c <__sclose>:
__sclose():
   1407c:	00e59583          	lh	a1,14(a1)
   14080:	3140006f          	j	14394 <_close_r>

00014084 <isatty>:
isatty():
   14084:	928fc06f          	j	101ac <_isatty>

00014088 <__swbuf_r>:
__swbuf_r():
   14088:	fe010113          	addi	sp,sp,-32
   1408c:	00812c23          	sw	s0,24(sp)
   14090:	00912a23          	sw	s1,20(sp)
   14094:	01212823          	sw	s2,16(sp)
   14098:	00112e23          	sw	ra,28(sp)
   1409c:	01312623          	sw	s3,12(sp)
   140a0:	00050493          	mv	s1,a0
   140a4:	00058913          	mv	s2,a1
   140a8:	00060413          	mv	s0,a2
   140ac:	00050863          	beqz	a0,140bc <__swbuf_r+0x34>
   140b0:	01852783          	lw	a5,24(a0)
   140b4:	00079463          	bnez	a5,140bc <__swbuf_r+0x34>
   140b8:	edcff0ef          	jal	ra,13794 <__sinit>
   140bc:	00001797          	auipc	a5,0x1
   140c0:	2f078793          	addi	a5,a5,752 # 153ac <__sf_fake_stdin>
   140c4:	0af41e63          	bne	s0,a5,14180 <__swbuf_r+0xf8>
   140c8:	0044a403          	lw	s0,4(s1)
   140cc:	01842783          	lw	a5,24(s0)
   140d0:	00f42423          	sw	a5,8(s0)
   140d4:	00c45783          	lhu	a5,12(s0)
   140d8:	0087f793          	andi	a5,a5,8
   140dc:	0c078663          	beqz	a5,141a8 <__swbuf_r+0x120>
   140e0:	01042783          	lw	a5,16(s0)
   140e4:	0c078263          	beqz	a5,141a8 <__swbuf_r+0x120>
   140e8:	01042783          	lw	a5,16(s0)
   140ec:	00042503          	lw	a0,0(s0)
   140f0:	0ff97993          	andi	s3,s2,255
   140f4:	0ff97913          	andi	s2,s2,255
   140f8:	40f50533          	sub	a0,a0,a5
   140fc:	01442783          	lw	a5,20(s0)
   14100:	00f54a63          	blt	a0,a5,14114 <__swbuf_r+0x8c>
   14104:	00040593          	mv	a1,s0
   14108:	00048513          	mv	a0,s1
   1410c:	ce8ff0ef          	jal	ra,135f4 <_fflush_r>
   14110:	0a051463          	bnez	a0,141b8 <__swbuf_r+0x130>
   14114:	00842783          	lw	a5,8(s0)
   14118:	00150513          	addi	a0,a0,1
   1411c:	fff78793          	addi	a5,a5,-1
   14120:	00f42423          	sw	a5,8(s0)
   14124:	00042783          	lw	a5,0(s0)
   14128:	00178713          	addi	a4,a5,1
   1412c:	00e42023          	sw	a4,0(s0)
   14130:	01378023          	sb	s3,0(a5)
   14134:	01442783          	lw	a5,20(s0)
   14138:	00a78c63          	beq	a5,a0,14150 <__swbuf_r+0xc8>
   1413c:	00c45783          	lhu	a5,12(s0)
   14140:	0017f793          	andi	a5,a5,1
   14144:	00078e63          	beqz	a5,14160 <__swbuf_r+0xd8>
   14148:	00a00793          	li	a5,10
   1414c:	00f91a63          	bne	s2,a5,14160 <__swbuf_r+0xd8>
   14150:	00040593          	mv	a1,s0
   14154:	00048513          	mv	a0,s1
   14158:	c9cff0ef          	jal	ra,135f4 <_fflush_r>
   1415c:	04051e63          	bnez	a0,141b8 <__swbuf_r+0x130>
   14160:	01c12083          	lw	ra,28(sp)
   14164:	01812403          	lw	s0,24(sp)
   14168:	00090513          	mv	a0,s2
   1416c:	01412483          	lw	s1,20(sp)
   14170:	01012903          	lw	s2,16(sp)
   14174:	00c12983          	lw	s3,12(sp)
   14178:	02010113          	addi	sp,sp,32
   1417c:	00008067          	ret
   14180:	00001797          	auipc	a5,0x1
   14184:	24c78793          	addi	a5,a5,588 # 153cc <__sf_fake_stdout>
   14188:	00f41663          	bne	s0,a5,14194 <__swbuf_r+0x10c>
   1418c:	0084a403          	lw	s0,8(s1)
   14190:	f3dff06f          	j	140cc <__swbuf_r+0x44>
   14194:	00001797          	auipc	a5,0x1
   14198:	1f878793          	addi	a5,a5,504 # 1538c <__sf_fake_stderr>
   1419c:	f2f418e3          	bne	s0,a5,140cc <__swbuf_r+0x44>
   141a0:	00c4a403          	lw	s0,12(s1)
   141a4:	f29ff06f          	j	140cc <__swbuf_r+0x44>
   141a8:	00040593          	mv	a1,s0
   141ac:	00048513          	mv	a0,s1
   141b0:	064000ef          	jal	ra,14214 <__swsetup_r>
   141b4:	f2050ae3          	beqz	a0,140e8 <__swbuf_r+0x60>
   141b8:	fff00913          	li	s2,-1
   141bc:	fa5ff06f          	j	14160 <__swbuf_r+0xd8>

000141c0 <_write_r>:
_write_r():
   141c0:	ff010113          	addi	sp,sp,-16
   141c4:	00812423          	sw	s0,8(sp)
   141c8:	00050413          	mv	s0,a0
   141cc:	00058513          	mv	a0,a1
   141d0:	00060593          	mv	a1,a2
   141d4:	00068613          	mv	a2,a3
   141d8:	00001797          	auipc	a5,0x1
   141dc:	4807ac23          	sw	zero,1176(a5) # 15670 <errno>
   141e0:	00112623          	sw	ra,12(sp)
   141e4:	994fc0ef          	jal	ra,10378 <_write>
   141e8:	fff00793          	li	a5,-1
   141ec:	00f51c63          	bne	a0,a5,14204 <_write_r+0x44>
   141f0:	00001797          	auipc	a5,0x1
   141f4:	48078793          	addi	a5,a5,1152 # 15670 <errno>
   141f8:	0007a783          	lw	a5,0(a5)
   141fc:	00078463          	beqz	a5,14204 <_write_r+0x44>
   14200:	00f42023          	sw	a5,0(s0)
   14204:	00c12083          	lw	ra,12(sp)
   14208:	00812403          	lw	s0,8(sp)
   1420c:	01010113          	addi	sp,sp,16
   14210:	00008067          	ret

00014214 <__swsetup_r>:
__swsetup_r():
   14214:	ff010113          	addi	sp,sp,-16
   14218:	00001797          	auipc	a5,0x1
   1421c:	34c78793          	addi	a5,a5,844 # 15564 <_impure_ptr>
   14220:	00912223          	sw	s1,4(sp)
   14224:	0007a483          	lw	s1,0(a5)
   14228:	00812423          	sw	s0,8(sp)
   1422c:	01212023          	sw	s2,0(sp)
   14230:	00112623          	sw	ra,12(sp)
   14234:	00050913          	mv	s2,a0
   14238:	00058413          	mv	s0,a1
   1423c:	00048a63          	beqz	s1,14250 <__swsetup_r+0x3c>
   14240:	0184a783          	lw	a5,24(s1)
   14244:	00079663          	bnez	a5,14250 <__swsetup_r+0x3c>
   14248:	00048513          	mv	a0,s1
   1424c:	d48ff0ef          	jal	ra,13794 <__sinit>
   14250:	00001797          	auipc	a5,0x1
   14254:	15c78793          	addi	a5,a5,348 # 153ac <__sf_fake_stdin>
   14258:	04f41863          	bne	s0,a5,142a8 <__swsetup_r+0x94>
   1425c:	0044a403          	lw	s0,4(s1)
   14260:	00c41703          	lh	a4,12(s0)
   14264:	01071793          	slli	a5,a4,0x10
   14268:	0107d793          	srli	a5,a5,0x10
   1426c:	0087f693          	andi	a3,a5,8
   14270:	0a069463          	bnez	a3,14318 <__swsetup_r+0x104>
   14274:	0107f693          	andi	a3,a5,16
   14278:	04069c63          	bnez	a3,142d0 <__swsetup_r+0xbc>
   1427c:	00900793          	li	a5,9
   14280:	00f92023          	sw	a5,0(s2)
   14284:	04076713          	ori	a4,a4,64
   14288:	00e41623          	sh	a4,12(s0)
   1428c:	fff00513          	li	a0,-1
   14290:	00c12083          	lw	ra,12(sp)
   14294:	00812403          	lw	s0,8(sp)
   14298:	00412483          	lw	s1,4(sp)
   1429c:	00012903          	lw	s2,0(sp)
   142a0:	01010113          	addi	sp,sp,16
   142a4:	00008067          	ret
   142a8:	00001797          	auipc	a5,0x1
   142ac:	12478793          	addi	a5,a5,292 # 153cc <__sf_fake_stdout>
   142b0:	00f41663          	bne	s0,a5,142bc <__swsetup_r+0xa8>
   142b4:	0084a403          	lw	s0,8(s1)
   142b8:	fa9ff06f          	j	14260 <__swsetup_r+0x4c>
   142bc:	00001797          	auipc	a5,0x1
   142c0:	0d078793          	addi	a5,a5,208 # 1538c <__sf_fake_stderr>
   142c4:	f8f41ee3          	bne	s0,a5,14260 <__swsetup_r+0x4c>
   142c8:	00c4a403          	lw	s0,12(s1)
   142cc:	f95ff06f          	j	14260 <__swsetup_r+0x4c>
   142d0:	0047f793          	andi	a5,a5,4
   142d4:	02078c63          	beqz	a5,1430c <__swsetup_r+0xf8>
   142d8:	03442583          	lw	a1,52(s0)
   142dc:	00058c63          	beqz	a1,142f4 <__swsetup_r+0xe0>
   142e0:	04440793          	addi	a5,s0,68
   142e4:	00f58663          	beq	a1,a5,142f0 <__swsetup_r+0xdc>
   142e8:	00090513          	mv	a0,s2
   142ec:	fc0ff0ef          	jal	ra,13aac <_free_r>
   142f0:	02042a23          	sw	zero,52(s0)
   142f4:	00c45783          	lhu	a5,12(s0)
   142f8:	00042223          	sw	zero,4(s0)
   142fc:	fdb7f793          	andi	a5,a5,-37
   14300:	00f41623          	sh	a5,12(s0)
   14304:	01042783          	lw	a5,16(s0)
   14308:	00f42023          	sw	a5,0(s0)
   1430c:	00c45783          	lhu	a5,12(s0)
   14310:	0087e793          	ori	a5,a5,8
   14314:	00f41623          	sh	a5,12(s0)
   14318:	01042783          	lw	a5,16(s0)
   1431c:	02079063          	bnez	a5,1433c <__swsetup_r+0x128>
   14320:	00c45783          	lhu	a5,12(s0)
   14324:	20000713          	li	a4,512
   14328:	2807f793          	andi	a5,a5,640
   1432c:	00e78863          	beq	a5,a4,1433c <__swsetup_r+0x128>
   14330:	00040593          	mv	a1,s0
   14334:	00090513          	mv	a0,s2
   14338:	188000ef          	jal	ra,144c0 <__smakebuf_r>
   1433c:	00c45783          	lhu	a5,12(s0)
   14340:	0017f713          	andi	a4,a5,1
   14344:	02070c63          	beqz	a4,1437c <__swsetup_r+0x168>
   14348:	01442783          	lw	a5,20(s0)
   1434c:	00042423          	sw	zero,8(s0)
   14350:	40f007b3          	neg	a5,a5
   14354:	00f42c23          	sw	a5,24(s0)
   14358:	01042783          	lw	a5,16(s0)
   1435c:	00000513          	li	a0,0
   14360:	f20798e3          	bnez	a5,14290 <__swsetup_r+0x7c>
   14364:	00c41783          	lh	a5,12(s0)
   14368:	0807f713          	andi	a4,a5,128
   1436c:	f20702e3          	beqz	a4,14290 <__swsetup_r+0x7c>
   14370:	0407e793          	ori	a5,a5,64
   14374:	00f41623          	sh	a5,12(s0)
   14378:	f15ff06f          	j	1428c <__swsetup_r+0x78>
   1437c:	0027f793          	andi	a5,a5,2
   14380:	00000713          	li	a4,0
   14384:	00079463          	bnez	a5,1438c <__swsetup_r+0x178>
   14388:	01442703          	lw	a4,20(s0)
   1438c:	00e42423          	sw	a4,8(s0)
   14390:	fc9ff06f          	j	14358 <__swsetup_r+0x144>

00014394 <_close_r>:
_close_r():
   14394:	ff010113          	addi	sp,sp,-16
   14398:	00812423          	sw	s0,8(sp)
   1439c:	00050413          	mv	s0,a0
   143a0:	00058513          	mv	a0,a1
   143a4:	00001797          	auipc	a5,0x1
   143a8:	2c07a623          	sw	zero,716(a5) # 15670 <errno>
   143ac:	00112623          	sw	ra,12(sp)
   143b0:	d49fb0ef          	jal	ra,100f8 <_close>
   143b4:	fff00793          	li	a5,-1
   143b8:	00f51c63          	bne	a0,a5,143d0 <_close_r+0x3c>
   143bc:	00001797          	auipc	a5,0x1
   143c0:	2b478793          	addi	a5,a5,692 # 15670 <errno>
   143c4:	0007a783          	lw	a5,0(a5)
   143c8:	00078463          	beqz	a5,143d0 <_close_r+0x3c>
   143cc:	00f42023          	sw	a5,0(s0)
   143d0:	00c12083          	lw	ra,12(sp)
   143d4:	00812403          	lw	s0,8(sp)
   143d8:	01010113          	addi	sp,sp,16
   143dc:	00008067          	ret

000143e0 <_lseek_r>:
_lseek_r():
   143e0:	ff010113          	addi	sp,sp,-16
   143e4:	00812423          	sw	s0,8(sp)
   143e8:	00050413          	mv	s0,a0
   143ec:	00058513          	mv	a0,a1
   143f0:	00060593          	mv	a1,a2
   143f4:	00068613          	mv	a2,a3
   143f8:	00001797          	auipc	a5,0x1
   143fc:	2607ac23          	sw	zero,632(a5) # 15670 <errno>
   14400:	00112623          	sw	ra,12(sp)
   14404:	e11fb0ef          	jal	ra,10214 <_lseek>
   14408:	fff00793          	li	a5,-1
   1440c:	00f51c63          	bne	a0,a5,14424 <_lseek_r+0x44>
   14410:	00001797          	auipc	a5,0x1
   14414:	26078793          	addi	a5,a5,608 # 15670 <errno>
   14418:	0007a783          	lw	a5,0(a5)
   1441c:	00078463          	beqz	a5,14424 <_lseek_r+0x44>
   14420:	00f42023          	sw	a5,0(s0)
   14424:	00c12083          	lw	ra,12(sp)
   14428:	00812403          	lw	s0,8(sp)
   1442c:	01010113          	addi	sp,sp,16
   14430:	00008067          	ret

00014434 <__swhatbuf_r>:
__swhatbuf_r():
   14434:	f8010113          	addi	sp,sp,-128
   14438:	06912a23          	sw	s1,116(sp)
   1443c:	00058493          	mv	s1,a1
   14440:	00e59583          	lh	a1,14(a1)
   14444:	06812c23          	sw	s0,120(sp)
   14448:	06112e23          	sw	ra,124(sp)
   1444c:	00060413          	mv	s0,a2
   14450:	0005de63          	bgez	a1,1446c <__swhatbuf_r+0x38>
   14454:	00c4d783          	lhu	a5,12(s1)
   14458:	0006a023          	sw	zero,0(a3)
   1445c:	0807f793          	andi	a5,a5,128
   14460:	04079063          	bnez	a5,144a0 <__swhatbuf_r+0x6c>
   14464:	40000793          	li	a5,1024
   14468:	03c0006f          	j	144a4 <__swhatbuf_r+0x70>
   1446c:	01810613          	addi	a2,sp,24
   14470:	00d12623          	sw	a3,12(sp)
   14474:	38d000ef          	jal	ra,15000 <_fstat_r>
   14478:	00c12683          	lw	a3,12(sp)
   1447c:	fc054ce3          	bltz	a0,14454 <__swhatbuf_r+0x20>
   14480:	01c12703          	lw	a4,28(sp)
   14484:	0000f7b7          	lui	a5,0xf
   14488:	00e7f7b3          	and	a5,a5,a4
   1448c:	ffffe737          	lui	a4,0xffffe
   14490:	00e787b3          	add	a5,a5,a4
   14494:	0017b793          	seqz	a5,a5
   14498:	00f6a023          	sw	a5,0(a3)
   1449c:	fc9ff06f          	j	14464 <__swhatbuf_r+0x30>
   144a0:	04000793          	li	a5,64
   144a4:	00f42023          	sw	a5,0(s0)
   144a8:	07c12083          	lw	ra,124(sp)
   144ac:	07812403          	lw	s0,120(sp)
   144b0:	07412483          	lw	s1,116(sp)
   144b4:	00000513          	li	a0,0
   144b8:	08010113          	addi	sp,sp,128
   144bc:	00008067          	ret

000144c0 <__smakebuf_r>:
__smakebuf_r():
   144c0:	00c5d783          	lhu	a5,12(a1)
   144c4:	fe010113          	addi	sp,sp,-32
   144c8:	00812c23          	sw	s0,24(sp)
   144cc:	00112e23          	sw	ra,28(sp)
   144d0:	00912a23          	sw	s1,20(sp)
   144d4:	01212823          	sw	s2,16(sp)
   144d8:	0027f793          	andi	a5,a5,2
   144dc:	00058413          	mv	s0,a1
   144e0:	02078863          	beqz	a5,14510 <__smakebuf_r+0x50>
   144e4:	04740793          	addi	a5,s0,71
   144e8:	00f42023          	sw	a5,0(s0)
   144ec:	00f42823          	sw	a5,16(s0)
   144f0:	00100793          	li	a5,1
   144f4:	00f42a23          	sw	a5,20(s0)
   144f8:	01c12083          	lw	ra,28(sp)
   144fc:	01812403          	lw	s0,24(sp)
   14500:	01412483          	lw	s1,20(sp)
   14504:	01012903          	lw	s2,16(sp)
   14508:	02010113          	addi	sp,sp,32
   1450c:	00008067          	ret
   14510:	00c10693          	addi	a3,sp,12
   14514:	00810613          	addi	a2,sp,8
   14518:	00050493          	mv	s1,a0
   1451c:	f19ff0ef          	jal	ra,14434 <__swhatbuf_r>
   14520:	00812583          	lw	a1,8(sp)
   14524:	00050913          	mv	s2,a0
   14528:	00048513          	mv	a0,s1
   1452c:	e8cff0ef          	jal	ra,13bb8 <_malloc_r>
   14530:	02051063          	bnez	a0,14550 <__smakebuf_r+0x90>
   14534:	00c41783          	lh	a5,12(s0)
   14538:	2007f713          	andi	a4,a5,512
   1453c:	fa071ee3          	bnez	a4,144f8 <__smakebuf_r+0x38>
   14540:	ffc7f793          	andi	a5,a5,-4
   14544:	0027e793          	ori	a5,a5,2
   14548:	00f41623          	sh	a5,12(s0)
   1454c:	f99ff06f          	j	144e4 <__smakebuf_r+0x24>
   14550:	fffff797          	auipc	a5,0xfffff
   14554:	1cc78793          	addi	a5,a5,460 # 1371c <_cleanup_r>
   14558:	02f4a423          	sw	a5,40(s1)
   1455c:	00c45783          	lhu	a5,12(s0)
   14560:	00a42023          	sw	a0,0(s0)
   14564:	00a42823          	sw	a0,16(s0)
   14568:	0807e793          	ori	a5,a5,128
   1456c:	00f41623          	sh	a5,12(s0)
   14570:	00812783          	lw	a5,8(sp)
   14574:	00f42a23          	sw	a5,20(s0)
   14578:	00c12783          	lw	a5,12(sp)
   1457c:	02078263          	beqz	a5,145a0 <__smakebuf_r+0xe0>
   14580:	00e41583          	lh	a1,14(s0)
   14584:	00048513          	mv	a0,s1
   14588:	2c9000ef          	jal	ra,15050 <_isatty_r>
   1458c:	00050a63          	beqz	a0,145a0 <__smakebuf_r+0xe0>
   14590:	00c45783          	lhu	a5,12(s0)
   14594:	ffc7f793          	andi	a5,a5,-4
   14598:	0017e793          	ori	a5,a5,1
   1459c:	00f41623          	sh	a5,12(s0)
   145a0:	00c45783          	lhu	a5,12(s0)
   145a4:	00f96933          	or	s2,s2,a5
   145a8:	01241623          	sh	s2,12(s0)
   145ac:	f4dff06f          	j	144f8 <__smakebuf_r+0x38>

000145b0 <__malloc_lock>:
__malloc_lock():
   145b0:	00008067          	ret

000145b4 <__malloc_unlock>:
__malloc_unlock():
   145b4:	00008067          	ret

000145b8 <__sfputc_r>:
__sfputc_r():
   145b8:	00862783          	lw	a5,8(a2)
   145bc:	fff78793          	addi	a5,a5,-1
   145c0:	00f62423          	sw	a5,8(a2)
   145c4:	0007dc63          	bgez	a5,145dc <__sfputc_r+0x24>
   145c8:	01862703          	lw	a4,24(a2)
   145cc:	00e7c663          	blt	a5,a4,145d8 <__sfputc_r+0x20>
   145d0:	00a00793          	li	a5,10
   145d4:	00f59463          	bne	a1,a5,145dc <__sfputc_r+0x24>
   145d8:	ab1ff06f          	j	14088 <__swbuf_r>
   145dc:	00062783          	lw	a5,0(a2)
   145e0:	00058513          	mv	a0,a1
   145e4:	00178713          	addi	a4,a5,1
   145e8:	00e62023          	sw	a4,0(a2)
   145ec:	00b78023          	sb	a1,0(a5)
   145f0:	00008067          	ret

000145f4 <__sfputs_r>:
__sfputs_r():
   145f4:	fe010113          	addi	sp,sp,-32
   145f8:	00812c23          	sw	s0,24(sp)
   145fc:	00912a23          	sw	s1,20(sp)
   14600:	01212823          	sw	s2,16(sp)
   14604:	01312623          	sw	s3,12(sp)
   14608:	01412423          	sw	s4,8(sp)
   1460c:	00112e23          	sw	ra,28(sp)
   14610:	00050913          	mv	s2,a0
   14614:	00058993          	mv	s3,a1
   14618:	00060413          	mv	s0,a2
   1461c:	00d604b3          	add	s1,a2,a3
   14620:	fff00a13          	li	s4,-1
   14624:	00941663          	bne	s0,s1,14630 <__sfputs_r+0x3c>
   14628:	00000513          	li	a0,0
   1462c:	01c0006f          	j	14648 <__sfputs_r+0x54>
   14630:	00044583          	lbu	a1,0(s0)
   14634:	00098613          	mv	a2,s3
   14638:	00090513          	mv	a0,s2
   1463c:	f7dff0ef          	jal	ra,145b8 <__sfputc_r>
   14640:	00140413          	addi	s0,s0,1
   14644:	ff4510e3          	bne	a0,s4,14624 <__sfputs_r+0x30>
   14648:	01c12083          	lw	ra,28(sp)
   1464c:	01812403          	lw	s0,24(sp)
   14650:	01412483          	lw	s1,20(sp)
   14654:	01012903          	lw	s2,16(sp)
   14658:	00c12983          	lw	s3,12(sp)
   1465c:	00812a03          	lw	s4,8(sp)
   14660:	02010113          	addi	sp,sp,32
   14664:	00008067          	ret

00014668 <_vfiprintf_r>:
_vfiprintf_r():
   14668:	f6010113          	addi	sp,sp,-160
   1466c:	08812c23          	sw	s0,152(sp)
   14670:	08912a23          	sw	s1,148(sp)
   14674:	09212823          	sw	s2,144(sp)
   14678:	09312623          	sw	s3,140(sp)
   1467c:	08112e23          	sw	ra,156(sp)
   14680:	09412423          	sw	s4,136(sp)
   14684:	09512223          	sw	s5,132(sp)
   14688:	09612023          	sw	s6,128(sp)
   1468c:	07712e23          	sw	s7,124(sp)
   14690:	07812c23          	sw	s8,120(sp)
   14694:	07912a23          	sw	s9,116(sp)
   14698:	00050993          	mv	s3,a0
   1469c:	00058493          	mv	s1,a1
   146a0:	00060913          	mv	s2,a2
   146a4:	00068413          	mv	s0,a3
   146a8:	00050863          	beqz	a0,146b8 <_vfiprintf_r+0x50>
   146ac:	01852783          	lw	a5,24(a0)
   146b0:	00079463          	bnez	a5,146b8 <_vfiprintf_r+0x50>
   146b4:	8e0ff0ef          	jal	ra,13794 <__sinit>
   146b8:	00001797          	auipc	a5,0x1
   146bc:	cf478793          	addi	a5,a5,-780 # 153ac <__sf_fake_stdin>
   146c0:	12f49263          	bne	s1,a5,147e4 <_vfiprintf_r+0x17c>
   146c4:	0049a483          	lw	s1,4(s3)
   146c8:	00c4d783          	lhu	a5,12(s1)
   146cc:	0087f793          	andi	a5,a5,8
   146d0:	12078e63          	beqz	a5,1480c <_vfiprintf_r+0x1a4>
   146d4:	0104a783          	lw	a5,16(s1)
   146d8:	12078a63          	beqz	a5,1480c <_vfiprintf_r+0x1a4>
   146dc:	02000793          	li	a5,32
   146e0:	02f104a3          	sb	a5,41(sp)
   146e4:	03000793          	li	a5,48
   146e8:	02012223          	sw	zero,36(sp)
   146ec:	02f10523          	sb	a5,42(sp)
   146f0:	00812623          	sw	s0,12(sp)
   146f4:	02500b93          	li	s7,37
   146f8:	00001a97          	auipc	s5,0x1
   146fc:	cf4a8a93          	addi	s5,s5,-780 # 153ec <__sf_fake_stdout+0x20>
   14700:	00100c13          	li	s8,1
   14704:	00a00b13          	li	s6,10
   14708:	00090413          	mv	s0,s2
   1470c:	00044783          	lbu	a5,0(s0)
   14710:	00078463          	beqz	a5,14718 <_vfiprintf_r+0xb0>
   14714:	15779063          	bne	a5,s7,14854 <_vfiprintf_r+0x1ec>
   14718:	41240cb3          	sub	s9,s0,s2
   1471c:	020c8663          	beqz	s9,14748 <_vfiprintf_r+0xe0>
   14720:	000c8693          	mv	a3,s9
   14724:	00090613          	mv	a2,s2
   14728:	00048593          	mv	a1,s1
   1472c:	00098513          	mv	a0,s3
   14730:	ec5ff0ef          	jal	ra,145f4 <__sfputs_r>
   14734:	fff00793          	li	a5,-1
   14738:	2cf50263          	beq	a0,a5,149fc <_vfiprintf_r+0x394>
   1473c:	02412683          	lw	a3,36(sp)
   14740:	019686b3          	add	a3,a3,s9
   14744:	02d12223          	sw	a3,36(sp)
   14748:	00044783          	lbu	a5,0(s0)
   1474c:	2a078863          	beqz	a5,149fc <_vfiprintf_r+0x394>
   14750:	fff00793          	li	a5,-1
   14754:	00140913          	addi	s2,s0,1
   14758:	00012823          	sw	zero,16(sp)
   1475c:	00012e23          	sw	zero,28(sp)
   14760:	00f12a23          	sw	a5,20(sp)
   14764:	00012c23          	sw	zero,24(sp)
   14768:	040109a3          	sb	zero,83(sp)
   1476c:	06012423          	sw	zero,104(sp)
   14770:	00094583          	lbu	a1,0(s2)
   14774:	00500613          	li	a2,5
   14778:	000a8513          	mv	a0,s5
   1477c:	121000ef          	jal	ra,1509c <memchr>
   14780:	00190413          	addi	s0,s2,1
   14784:	01012783          	lw	a5,16(sp)
   14788:	0c051a63          	bnez	a0,1485c <_vfiprintf_r+0x1f4>
   1478c:	0107f713          	andi	a4,a5,16
   14790:	00070663          	beqz	a4,1479c <_vfiprintf_r+0x134>
   14794:	02000713          	li	a4,32
   14798:	04e109a3          	sb	a4,83(sp)
   1479c:	0087f713          	andi	a4,a5,8
   147a0:	00070663          	beqz	a4,147ac <_vfiprintf_r+0x144>
   147a4:	02b00713          	li	a4,43
   147a8:	04e109a3          	sb	a4,83(sp)
   147ac:	00094683          	lbu	a3,0(s2)
   147b0:	02a00713          	li	a4,42
   147b4:	0ce68063          	beq	a3,a4,14874 <_vfiprintf_r+0x20c>
   147b8:	01c12783          	lw	a5,28(sp)
   147bc:	00090413          	mv	s0,s2
   147c0:	00000693          	li	a3,0
   147c4:	00900613          	li	a2,9
   147c8:	00044703          	lbu	a4,0(s0)
   147cc:	00140593          	addi	a1,s0,1
   147d0:	fd070713          	addi	a4,a4,-48 # ffffdfd0 <__freertos_irq_stack_top+0xfffbf950>
   147d4:	10e67263          	bgeu	a2,a4,148d8 <_vfiprintf_r+0x270>
   147d8:	0a068a63          	beqz	a3,1488c <_vfiprintf_r+0x224>
   147dc:	00f12e23          	sw	a5,28(sp)
   147e0:	0ac0006f          	j	1488c <_vfiprintf_r+0x224>
   147e4:	00001797          	auipc	a5,0x1
   147e8:	be878793          	addi	a5,a5,-1048 # 153cc <__sf_fake_stdout>
   147ec:	00f49663          	bne	s1,a5,147f8 <_vfiprintf_r+0x190>
   147f0:	0089a483          	lw	s1,8(s3)
   147f4:	ed5ff06f          	j	146c8 <_vfiprintf_r+0x60>
   147f8:	00001797          	auipc	a5,0x1
   147fc:	b9478793          	addi	a5,a5,-1132 # 1538c <__sf_fake_stderr>
   14800:	ecf494e3          	bne	s1,a5,146c8 <_vfiprintf_r+0x60>
   14804:	00c9a483          	lw	s1,12(s3)
   14808:	ec1ff06f          	j	146c8 <_vfiprintf_r+0x60>
   1480c:	00048593          	mv	a1,s1
   14810:	00098513          	mv	a0,s3
   14814:	a01ff0ef          	jal	ra,14214 <__swsetup_r>
   14818:	ec0502e3          	beqz	a0,146dc <_vfiprintf_r+0x74>
   1481c:	fff00513          	li	a0,-1
   14820:	09c12083          	lw	ra,156(sp)
   14824:	09812403          	lw	s0,152(sp)
   14828:	09412483          	lw	s1,148(sp)
   1482c:	09012903          	lw	s2,144(sp)
   14830:	08c12983          	lw	s3,140(sp)
   14834:	08812a03          	lw	s4,136(sp)
   14838:	08412a83          	lw	s5,132(sp)
   1483c:	08012b03          	lw	s6,128(sp)
   14840:	07c12b83          	lw	s7,124(sp)
   14844:	07812c03          	lw	s8,120(sp)
   14848:	07412c83          	lw	s9,116(sp)
   1484c:	0a010113          	addi	sp,sp,160
   14850:	00008067          	ret
   14854:	00140413          	addi	s0,s0,1
   14858:	eb5ff06f          	j	1470c <_vfiprintf_r+0xa4>
   1485c:	41550533          	sub	a0,a0,s5
   14860:	00ac1533          	sll	a0,s8,a0
   14864:	00a7e7b3          	or	a5,a5,a0
   14868:	00f12823          	sw	a5,16(sp)
   1486c:	00040913          	mv	s2,s0
   14870:	f01ff06f          	j	14770 <_vfiprintf_r+0x108>
   14874:	00c12703          	lw	a4,12(sp)
   14878:	00470693          	addi	a3,a4,4
   1487c:	00072703          	lw	a4,0(a4)
   14880:	00d12623          	sw	a3,12(sp)
   14884:	04074063          	bltz	a4,148c4 <_vfiprintf_r+0x25c>
   14888:	00e12e23          	sw	a4,28(sp)
   1488c:	00044703          	lbu	a4,0(s0)
   14890:	02e00793          	li	a5,46
   14894:	08f71463          	bne	a4,a5,1491c <_vfiprintf_r+0x2b4>
   14898:	00144703          	lbu	a4,1(s0)
   1489c:	02a00793          	li	a5,42
   148a0:	04f71a63          	bne	a4,a5,148f4 <_vfiprintf_r+0x28c>
   148a4:	00c12783          	lw	a5,12(sp)
   148a8:	00240413          	addi	s0,s0,2
   148ac:	00478713          	addi	a4,a5,4
   148b0:	0007a783          	lw	a5,0(a5)
   148b4:	00e12623          	sw	a4,12(sp)
   148b8:	0207ca63          	bltz	a5,148ec <_vfiprintf_r+0x284>
   148bc:	00f12a23          	sw	a5,20(sp)
   148c0:	05c0006f          	j	1491c <_vfiprintf_r+0x2b4>
   148c4:	40e00733          	neg	a4,a4
   148c8:	0027e793          	ori	a5,a5,2
   148cc:	00e12e23          	sw	a4,28(sp)
   148d0:	00f12823          	sw	a5,16(sp)
   148d4:	fb9ff06f          	j	1488c <_vfiprintf_r+0x224>
   148d8:	036787b3          	mul	a5,a5,s6
   148dc:	00100693          	li	a3,1
   148e0:	00058413          	mv	s0,a1
   148e4:	00e787b3          	add	a5,a5,a4
   148e8:	ee1ff06f          	j	147c8 <_vfiprintf_r+0x160>
   148ec:	fff00793          	li	a5,-1
   148f0:	fcdff06f          	j	148bc <_vfiprintf_r+0x254>
   148f4:	00140413          	addi	s0,s0,1
   148f8:	00012a23          	sw	zero,20(sp)
   148fc:	00000693          	li	a3,0
   14900:	00000793          	li	a5,0
   14904:	00900613          	li	a2,9
   14908:	00044703          	lbu	a4,0(s0)
   1490c:	00140593          	addi	a1,s0,1
   14910:	fd070713          	addi	a4,a4,-48
   14914:	08e67c63          	bgeu	a2,a4,149ac <_vfiprintf_r+0x344>
   14918:	fa0692e3          	bnez	a3,148bc <_vfiprintf_r+0x254>
   1491c:	00044583          	lbu	a1,0(s0)
   14920:	00300613          	li	a2,3
   14924:	00001517          	auipc	a0,0x1
   14928:	ad050513          	addi	a0,a0,-1328 # 153f4 <__sf_fake_stdout+0x28>
   1492c:	770000ef          	jal	ra,1509c <memchr>
   14930:	02050463          	beqz	a0,14958 <_vfiprintf_r+0x2f0>
   14934:	00001797          	auipc	a5,0x1
   14938:	ac078793          	addi	a5,a5,-1344 # 153f4 <__sf_fake_stdout+0x28>
   1493c:	40f50533          	sub	a0,a0,a5
   14940:	04000793          	li	a5,64
   14944:	00a797b3          	sll	a5,a5,a0
   14948:	01012503          	lw	a0,16(sp)
   1494c:	00140413          	addi	s0,s0,1
   14950:	00f56533          	or	a0,a0,a5
   14954:	00a12823          	sw	a0,16(sp)
   14958:	00044583          	lbu	a1,0(s0)
   1495c:	00600613          	li	a2,6
   14960:	00001517          	auipc	a0,0x1
   14964:	a9850513          	addi	a0,a0,-1384 # 153f8 <__sf_fake_stdout+0x2c>
   14968:	00140913          	addi	s2,s0,1
   1496c:	02b10423          	sb	a1,40(sp)
   14970:	72c000ef          	jal	ra,1509c <memchr>
   14974:	08050e63          	beqz	a0,14a10 <_vfiprintf_r+0x3a8>
   14978:	fffeb797          	auipc	a5,0xfffeb
   1497c:	68878793          	addi	a5,a5,1672 # 0 <__stack_size-0x10000>
   14980:	04079863          	bnez	a5,149d0 <_vfiprintf_r+0x368>
   14984:	01012703          	lw	a4,16(sp)
   14988:	00c12783          	lw	a5,12(sp)
   1498c:	10077713          	andi	a4,a4,256
   14990:	02070863          	beqz	a4,149c0 <_vfiprintf_r+0x358>
   14994:	00478793          	addi	a5,a5,4
   14998:	00f12623          	sw	a5,12(sp)
   1499c:	02412783          	lw	a5,36(sp)
   149a0:	014787b3          	add	a5,a5,s4
   149a4:	02f12223          	sw	a5,36(sp)
   149a8:	d61ff06f          	j	14708 <_vfiprintf_r+0xa0>
   149ac:	036787b3          	mul	a5,a5,s6
   149b0:	00100693          	li	a3,1
   149b4:	00058413          	mv	s0,a1
   149b8:	00e787b3          	add	a5,a5,a4
   149bc:	f4dff06f          	j	14908 <_vfiprintf_r+0x2a0>
   149c0:	00778793          	addi	a5,a5,7
   149c4:	ff87f793          	andi	a5,a5,-8
   149c8:	00878793          	addi	a5,a5,8
   149cc:	fcdff06f          	j	14998 <_vfiprintf_r+0x330>
   149d0:	00c10713          	addi	a4,sp,12
   149d4:	00000697          	auipc	a3,0x0
   149d8:	c2068693          	addi	a3,a3,-992 # 145f4 <__sfputs_r>
   149dc:	00048613          	mv	a2,s1
   149e0:	01010593          	addi	a1,sp,16
   149e4:	00098513          	mv	a0,s3
   149e8:	00000097          	auipc	ra,0x0
   149ec:	000000e7          	jalr	zero # 0 <__stack_size-0x10000>
   149f0:	fff00793          	li	a5,-1
   149f4:	00050a13          	mv	s4,a0
   149f8:	faf512e3          	bne	a0,a5,1499c <_vfiprintf_r+0x334>
   149fc:	00c4d783          	lhu	a5,12(s1)
   14a00:	0407f793          	andi	a5,a5,64
   14a04:	e0079ce3          	bnez	a5,1481c <_vfiprintf_r+0x1b4>
   14a08:	02412503          	lw	a0,36(sp)
   14a0c:	e15ff06f          	j	14820 <_vfiprintf_r+0x1b8>
   14a10:	00c10713          	addi	a4,sp,12
   14a14:	00000697          	auipc	a3,0x0
   14a18:	be068693          	addi	a3,a3,-1056 # 145f4 <__sfputs_r>
   14a1c:	00048613          	mv	a2,s1
   14a20:	01010593          	addi	a1,sp,16
   14a24:	00098513          	mv	a0,s3
   14a28:	1b8000ef          	jal	ra,14be0 <_printf_i>
   14a2c:	fc5ff06f          	j	149f0 <_vfiprintf_r+0x388>

00014a30 <_printf_common>:
_printf_common():
   14a30:	fd010113          	addi	sp,sp,-48
   14a34:	01512a23          	sw	s5,20(sp)
   14a38:	0105a783          	lw	a5,16(a1)
   14a3c:	00070a93          	mv	s5,a4
   14a40:	0085a703          	lw	a4,8(a1)
   14a44:	02812423          	sw	s0,40(sp)
   14a48:	02912223          	sw	s1,36(sp)
   14a4c:	01312e23          	sw	s3,28(sp)
   14a50:	01412c23          	sw	s4,24(sp)
   14a54:	02112623          	sw	ra,44(sp)
   14a58:	03212023          	sw	s2,32(sp)
   14a5c:	01612823          	sw	s6,16(sp)
   14a60:	01712623          	sw	s7,12(sp)
   14a64:	00050993          	mv	s3,a0
   14a68:	00058413          	mv	s0,a1
   14a6c:	00060493          	mv	s1,a2
   14a70:	00068a13          	mv	s4,a3
   14a74:	00e7d463          	bge	a5,a4,14a7c <_printf_common+0x4c>
   14a78:	00070793          	mv	a5,a4
   14a7c:	00f4a023          	sw	a5,0(s1)
   14a80:	04344703          	lbu	a4,67(s0)
   14a84:	00070663          	beqz	a4,14a90 <_printf_common+0x60>
   14a88:	00178793          	addi	a5,a5,1
   14a8c:	00f4a023          	sw	a5,0(s1)
   14a90:	00042783          	lw	a5,0(s0)
   14a94:	0207f793          	andi	a5,a5,32
   14a98:	00078863          	beqz	a5,14aa8 <_printf_common+0x78>
   14a9c:	0004a783          	lw	a5,0(s1)
   14aa0:	00278793          	addi	a5,a5,2
   14aa4:	00f4a023          	sw	a5,0(s1)
   14aa8:	00042903          	lw	s2,0(s0)
   14aac:	00697913          	andi	s2,s2,6
   14ab0:	00091e63          	bnez	s2,14acc <_printf_common+0x9c>
   14ab4:	01940b13          	addi	s6,s0,25
   14ab8:	fff00b93          	li	s7,-1
   14abc:	00c42783          	lw	a5,12(s0)
   14ac0:	0004a703          	lw	a4,0(s1)
   14ac4:	40e787b3          	sub	a5,a5,a4
   14ac8:	08f94263          	blt	s2,a5,14b4c <_printf_common+0x11c>
   14acc:	00042783          	lw	a5,0(s0)
   14ad0:	04344683          	lbu	a3,67(s0)
   14ad4:	0207f793          	andi	a5,a5,32
   14ad8:	00d036b3          	snez	a3,a3
   14adc:	0c079063          	bnez	a5,14b9c <_printf_common+0x16c>
   14ae0:	04340613          	addi	a2,s0,67
   14ae4:	000a0593          	mv	a1,s4
   14ae8:	00098513          	mv	a0,s3
   14aec:	000a80e7          	jalr	s5
   14af0:	fff00793          	li	a5,-1
   14af4:	06f50863          	beq	a0,a5,14b64 <_printf_common+0x134>
   14af8:	00042783          	lw	a5,0(s0)
   14afc:	00400613          	li	a2,4
   14b00:	0004a703          	lw	a4,0(s1)
   14b04:	0067f793          	andi	a5,a5,6
   14b08:	00c42683          	lw	a3,12(s0)
   14b0c:	00000493          	li	s1,0
   14b10:	00c79863          	bne	a5,a2,14b20 <_printf_common+0xf0>
   14b14:	40e684b3          	sub	s1,a3,a4
   14b18:	0004d463          	bgez	s1,14b20 <_printf_common+0xf0>
   14b1c:	00000493          	li	s1,0
   14b20:	00842783          	lw	a5,8(s0)
   14b24:	01042703          	lw	a4,16(s0)
   14b28:	00f75663          	bge	a4,a5,14b34 <_printf_common+0x104>
   14b2c:	40e787b3          	sub	a5,a5,a4
   14b30:	00f484b3          	add	s1,s1,a5
   14b34:	00000913          	li	s2,0
   14b38:	01a40413          	addi	s0,s0,26
   14b3c:	fff00b13          	li	s6,-1
   14b40:	09249063          	bne	s1,s2,14bc0 <_printf_common+0x190>
   14b44:	00000513          	li	a0,0
   14b48:	0200006f          	j	14b68 <_printf_common+0x138>
   14b4c:	00100693          	li	a3,1
   14b50:	000b0613          	mv	a2,s6
   14b54:	000a0593          	mv	a1,s4
   14b58:	00098513          	mv	a0,s3
   14b5c:	000a80e7          	jalr	s5
   14b60:	03751a63          	bne	a0,s7,14b94 <_printf_common+0x164>
   14b64:	fff00513          	li	a0,-1
   14b68:	02c12083          	lw	ra,44(sp)
   14b6c:	02812403          	lw	s0,40(sp)
   14b70:	02412483          	lw	s1,36(sp)
   14b74:	02012903          	lw	s2,32(sp)
   14b78:	01c12983          	lw	s3,28(sp)
   14b7c:	01812a03          	lw	s4,24(sp)
   14b80:	01412a83          	lw	s5,20(sp)
   14b84:	01012b03          	lw	s6,16(sp)
   14b88:	00c12b83          	lw	s7,12(sp)
   14b8c:	03010113          	addi	sp,sp,48
   14b90:	00008067          	ret
   14b94:	00190913          	addi	s2,s2,1
   14b98:	f25ff06f          	j	14abc <_printf_common+0x8c>
   14b9c:	00d40733          	add	a4,s0,a3
   14ba0:	03000613          	li	a2,48
   14ba4:	04c701a3          	sb	a2,67(a4)
   14ba8:	04544703          	lbu	a4,69(s0)
   14bac:	00168793          	addi	a5,a3,1
   14bb0:	00f407b3          	add	a5,s0,a5
   14bb4:	00268693          	addi	a3,a3,2
   14bb8:	04e781a3          	sb	a4,67(a5)
   14bbc:	f25ff06f          	j	14ae0 <_printf_common+0xb0>
   14bc0:	00100693          	li	a3,1
   14bc4:	00040613          	mv	a2,s0
   14bc8:	000a0593          	mv	a1,s4
   14bcc:	00098513          	mv	a0,s3
   14bd0:	000a80e7          	jalr	s5
   14bd4:	f96508e3          	beq	a0,s6,14b64 <_printf_common+0x134>
   14bd8:	00190913          	addi	s2,s2,1
   14bdc:	f65ff06f          	j	14b40 <_printf_common+0x110>

00014be0 <_printf_i>:
_printf_i():
   14be0:	fd010113          	addi	sp,sp,-48
   14be4:	02812423          	sw	s0,40(sp)
   14be8:	02912223          	sw	s1,36(sp)
   14bec:	03212023          	sw	s2,32(sp)
   14bf0:	01312e23          	sw	s3,28(sp)
   14bf4:	02112623          	sw	ra,44(sp)
   14bf8:	01412c23          	sw	s4,24(sp)
   14bfc:	01512a23          	sw	s5,20(sp)
   14c00:	01612823          	sw	s6,16(sp)
   14c04:	00068993          	mv	s3,a3
   14c08:	0185c683          	lbu	a3,24(a1)
   14c0c:	06e00793          	li	a5,110
   14c10:	00060913          	mv	s2,a2
   14c14:	00050493          	mv	s1,a0
   14c18:	00058413          	mv	s0,a1
   14c1c:	04358613          	addi	a2,a1,67
   14c20:	28f68863          	beq	a3,a5,14eb0 <_printf_i+0x2d0>
   14c24:	06d7ea63          	bltu	a5,a3,14c98 <_printf_i+0xb8>
   14c28:	06300793          	li	a5,99
   14c2c:	0af68e63          	beq	a3,a5,14ce8 <_printf_i+0x108>
   14c30:	00d7ee63          	bltu	a5,a3,14c4c <_printf_i+0x6c>
   14c34:	2a068c63          	beqz	a3,14eec <_printf_i+0x30c>
   14c38:	05800793          	li	a5,88
   14c3c:	1ef68a63          	beq	a3,a5,14e30 <_printf_i+0x250>
   14c40:	04240a93          	addi	s5,s0,66
   14c44:	04d40123          	sb	a3,66(s0)
   14c48:	0b80006f          	j	14d00 <_printf_i+0x120>
   14c4c:	06400793          	li	a5,100
   14c50:	00f68663          	beq	a3,a5,14c5c <_printf_i+0x7c>
   14c54:	06900793          	li	a5,105
   14c58:	fef694e3          	bne	a3,a5,14c40 <_printf_i+0x60>
   14c5c:	00042783          	lw	a5,0(s0)
   14c60:	00072503          	lw	a0,0(a4)
   14c64:	0807f693          	andi	a3,a5,128
   14c68:	00450593          	addi	a1,a0,4
   14c6c:	08068e63          	beqz	a3,14d08 <_printf_i+0x128>
   14c70:	00052783          	lw	a5,0(a0)
   14c74:	00b72023          	sw	a1,0(a4)
   14c78:	0007d863          	bgez	a5,14c88 <_printf_i+0xa8>
   14c7c:	02d00713          	li	a4,45
   14c80:	40f007b3          	neg	a5,a5
   14c84:	04e401a3          	sb	a4,67(s0)
   14c88:	00000697          	auipc	a3,0x0
   14c8c:	77868693          	addi	a3,a3,1912 # 15400 <__sf_fake_stdout+0x34>
   14c90:	00a00713          	li	a4,10
   14c94:	0d80006f          	j	14d6c <_printf_i+0x18c>
   14c98:	07300793          	li	a5,115
   14c9c:	24f68e63          	beq	a3,a5,14ef8 <_printf_i+0x318>
   14ca0:	02d7e263          	bltu	a5,a3,14cc4 <_printf_i+0xe4>
   14ca4:	06f00793          	li	a5,111
   14ca8:	06f68e63          	beq	a3,a5,14d24 <_printf_i+0x144>
   14cac:	07000793          	li	a5,112
   14cb0:	f8f698e3          	bne	a3,a5,14c40 <_printf_i+0x60>
   14cb4:	0005a783          	lw	a5,0(a1)
   14cb8:	0207e793          	ori	a5,a5,32
   14cbc:	00f5a023          	sw	a5,0(a1)
   14cc0:	0140006f          	j	14cd4 <_printf_i+0xf4>
   14cc4:	07500793          	li	a5,117
   14cc8:	04f68e63          	beq	a3,a5,14d24 <_printf_i+0x144>
   14ccc:	07800793          	li	a5,120
   14cd0:	f6f698e3          	bne	a3,a5,14c40 <_printf_i+0x60>
   14cd4:	07800793          	li	a5,120
   14cd8:	04f402a3          	sb	a5,69(s0)
   14cdc:	00000697          	auipc	a3,0x0
   14ce0:	73868693          	addi	a3,a3,1848 # 15414 <__sf_fake_stdout+0x48>
   14ce4:	1580006f          	j	14e3c <_printf_i+0x25c>
   14ce8:	00072783          	lw	a5,0(a4)
   14cec:	04258a93          	addi	s5,a1,66
   14cf0:	00478693          	addi	a3,a5,4
   14cf4:	0007a783          	lw	a5,0(a5)
   14cf8:	00d72023          	sw	a3,0(a4)
   14cfc:	04f58123          	sb	a5,66(a1)
   14d00:	00100793          	li	a5,1
   14d04:	2240006f          	j	14f28 <_printf_i+0x348>
   14d08:	0407f693          	andi	a3,a5,64
   14d0c:	00052783          	lw	a5,0(a0)
   14d10:	00b72023          	sw	a1,0(a4)
   14d14:	f60682e3          	beqz	a3,14c78 <_printf_i+0x98>
   14d18:	01079793          	slli	a5,a5,0x10
   14d1c:	4107d793          	srai	a5,a5,0x10
   14d20:	f59ff06f          	j	14c78 <_printf_i+0x98>
   14d24:	00042583          	lw	a1,0(s0)
   14d28:	00072783          	lw	a5,0(a4)
   14d2c:	0805f813          	andi	a6,a1,128
   14d30:	00478513          	addi	a0,a5,4
   14d34:	00080863          	beqz	a6,14d44 <_printf_i+0x164>
   14d38:	00a72023          	sw	a0,0(a4)
   14d3c:	0007a783          	lw	a5,0(a5)
   14d40:	0140006f          	j	14d54 <_printf_i+0x174>
   14d44:	0405f593          	andi	a1,a1,64
   14d48:	00a72023          	sw	a0,0(a4)
   14d4c:	fe0588e3          	beqz	a1,14d3c <_printf_i+0x15c>
   14d50:	0007d783          	lhu	a5,0(a5)
   14d54:	06f00713          	li	a4,111
   14d58:	14e68063          	beq	a3,a4,14e98 <_printf_i+0x2b8>
   14d5c:	00000697          	auipc	a3,0x0
   14d60:	6a468693          	addi	a3,a3,1700 # 15400 <__sf_fake_stdout+0x34>
   14d64:	00a00713          	li	a4,10
   14d68:	040401a3          	sb	zero,67(s0)
   14d6c:	00442583          	lw	a1,4(s0)
   14d70:	00b42423          	sw	a1,8(s0)
   14d74:	0005c863          	bltz	a1,14d84 <_printf_i+0x1a4>
   14d78:	00042503          	lw	a0,0(s0)
   14d7c:	ffb57513          	andi	a0,a0,-5
   14d80:	00a42023          	sw	a0,0(s0)
   14d84:	00079663          	bnez	a5,14d90 <_printf_i+0x1b0>
   14d88:	00060a93          	mv	s5,a2
   14d8c:	02058263          	beqz	a1,14db0 <_printf_i+0x1d0>
   14d90:	00060a93          	mv	s5,a2
   14d94:	02e7f5b3          	remu	a1,a5,a4
   14d98:	fffa8a93          	addi	s5,s5,-1
   14d9c:	00b685b3          	add	a1,a3,a1
   14da0:	0005c583          	lbu	a1,0(a1)
   14da4:	00ba8023          	sb	a1,0(s5)
   14da8:	02e7d5b3          	divu	a1,a5,a4
   14dac:	0ee7fe63          	bgeu	a5,a4,14ea8 <_printf_i+0x2c8>
   14db0:	00800793          	li	a5,8
   14db4:	02f71463          	bne	a4,a5,14ddc <_printf_i+0x1fc>
   14db8:	00042783          	lw	a5,0(s0)
   14dbc:	0017f793          	andi	a5,a5,1
   14dc0:	00078e63          	beqz	a5,14ddc <_printf_i+0x1fc>
   14dc4:	00442703          	lw	a4,4(s0)
   14dc8:	01042783          	lw	a5,16(s0)
   14dcc:	00e7c863          	blt	a5,a4,14ddc <_printf_i+0x1fc>
   14dd0:	03000793          	li	a5,48
   14dd4:	fefa8fa3          	sb	a5,-1(s5)
   14dd8:	fffa8a93          	addi	s5,s5,-1
   14ddc:	41560633          	sub	a2,a2,s5
   14de0:	00c42823          	sw	a2,16(s0)
   14de4:	00098713          	mv	a4,s3
   14de8:	00090693          	mv	a3,s2
   14dec:	00c10613          	addi	a2,sp,12
   14df0:	00040593          	mv	a1,s0
   14df4:	00048513          	mv	a0,s1
   14df8:	c39ff0ef          	jal	ra,14a30 <_printf_common>
   14dfc:	fff00a13          	li	s4,-1
   14e00:	13451a63          	bne	a0,s4,14f34 <_printf_i+0x354>
   14e04:	fff00513          	li	a0,-1
   14e08:	02c12083          	lw	ra,44(sp)
   14e0c:	02812403          	lw	s0,40(sp)
   14e10:	02412483          	lw	s1,36(sp)
   14e14:	02012903          	lw	s2,32(sp)
   14e18:	01c12983          	lw	s3,28(sp)
   14e1c:	01812a03          	lw	s4,24(sp)
   14e20:	01412a83          	lw	s5,20(sp)
   14e24:	01012b03          	lw	s6,16(sp)
   14e28:	03010113          	addi	sp,sp,48
   14e2c:	00008067          	ret
   14e30:	04d582a3          	sb	a3,69(a1)
   14e34:	00000697          	auipc	a3,0x0
   14e38:	5cc68693          	addi	a3,a3,1484 # 15400 <__sf_fake_stdout+0x34>
   14e3c:	00042583          	lw	a1,0(s0)
   14e40:	00072503          	lw	a0,0(a4)
   14e44:	0805f813          	andi	a6,a1,128
   14e48:	00052783          	lw	a5,0(a0)
   14e4c:	00450513          	addi	a0,a0,4
   14e50:	02080863          	beqz	a6,14e80 <_printf_i+0x2a0>
   14e54:	00a72023          	sw	a0,0(a4)
   14e58:	0015f713          	andi	a4,a1,1
   14e5c:	00070663          	beqz	a4,14e68 <_printf_i+0x288>
   14e60:	0205e593          	ori	a1,a1,32
   14e64:	00b42023          	sw	a1,0(s0)
   14e68:	01000713          	li	a4,16
   14e6c:	ee079ee3          	bnez	a5,14d68 <_printf_i+0x188>
   14e70:	00042583          	lw	a1,0(s0)
   14e74:	fdf5f593          	andi	a1,a1,-33
   14e78:	00b42023          	sw	a1,0(s0)
   14e7c:	eedff06f          	j	14d68 <_printf_i+0x188>
   14e80:	0405f813          	andi	a6,a1,64
   14e84:	00a72023          	sw	a0,0(a4)
   14e88:	fc0808e3          	beqz	a6,14e58 <_printf_i+0x278>
   14e8c:	01079793          	slli	a5,a5,0x10
   14e90:	0107d793          	srli	a5,a5,0x10
   14e94:	fc5ff06f          	j	14e58 <_printf_i+0x278>
   14e98:	00000697          	auipc	a3,0x0
   14e9c:	56868693          	addi	a3,a3,1384 # 15400 <__sf_fake_stdout+0x34>
   14ea0:	00800713          	li	a4,8
   14ea4:	ec5ff06f          	j	14d68 <_printf_i+0x188>
   14ea8:	00058793          	mv	a5,a1
   14eac:	ee9ff06f          	j	14d94 <_printf_i+0x1b4>
   14eb0:	0005a683          	lw	a3,0(a1)
   14eb4:	00072783          	lw	a5,0(a4)
   14eb8:	0145a583          	lw	a1,20(a1)
   14ebc:	0806f813          	andi	a6,a3,128
   14ec0:	00478513          	addi	a0,a5,4
   14ec4:	00080a63          	beqz	a6,14ed8 <_printf_i+0x2f8>
   14ec8:	00a72023          	sw	a0,0(a4)
   14ecc:	0007a783          	lw	a5,0(a5)
   14ed0:	00b7a023          	sw	a1,0(a5)
   14ed4:	0180006f          	j	14eec <_printf_i+0x30c>
   14ed8:	00a72023          	sw	a0,0(a4)
   14edc:	0406f693          	andi	a3,a3,64
   14ee0:	0007a783          	lw	a5,0(a5)
   14ee4:	fe0686e3          	beqz	a3,14ed0 <_printf_i+0x2f0>
   14ee8:	00b79023          	sh	a1,0(a5)
   14eec:	00042823          	sw	zero,16(s0)
   14ef0:	00060a93          	mv	s5,a2
   14ef4:	ef1ff06f          	j	14de4 <_printf_i+0x204>
   14ef8:	00072783          	lw	a5,0(a4)
   14efc:	0045a603          	lw	a2,4(a1)
   14f00:	00000593          	li	a1,0
   14f04:	00478693          	addi	a3,a5,4
   14f08:	00d72023          	sw	a3,0(a4)
   14f0c:	0007aa83          	lw	s5,0(a5)
   14f10:	000a8513          	mv	a0,s5
   14f14:	188000ef          	jal	ra,1509c <memchr>
   14f18:	00050663          	beqz	a0,14f24 <_printf_i+0x344>
   14f1c:	41550533          	sub	a0,a0,s5
   14f20:	00a42223          	sw	a0,4(s0)
   14f24:	00442783          	lw	a5,4(s0)
   14f28:	00f42823          	sw	a5,16(s0)
   14f2c:	040401a3          	sb	zero,67(s0)
   14f30:	eb5ff06f          	j	14de4 <_printf_i+0x204>
   14f34:	01042683          	lw	a3,16(s0)
   14f38:	000a8613          	mv	a2,s5
   14f3c:	00090593          	mv	a1,s2
   14f40:	00048513          	mv	a0,s1
   14f44:	000980e7          	jalr	s3
   14f48:	eb450ee3          	beq	a0,s4,14e04 <_printf_i+0x224>
   14f4c:	00042783          	lw	a5,0(s0)
   14f50:	0027f793          	andi	a5,a5,2
   14f54:	04079463          	bnez	a5,14f9c <_printf_i+0x3bc>
   14f58:	00c12783          	lw	a5,12(sp)
   14f5c:	00c42503          	lw	a0,12(s0)
   14f60:	eaf554e3          	bge	a0,a5,14e08 <_printf_i+0x228>
   14f64:	00078513          	mv	a0,a5
   14f68:	ea1ff06f          	j	14e08 <_printf_i+0x228>
   14f6c:	00100693          	li	a3,1
   14f70:	000a8613          	mv	a2,s5
   14f74:	00090593          	mv	a1,s2
   14f78:	00048513          	mv	a0,s1
   14f7c:	000980e7          	jalr	s3
   14f80:	e96502e3          	beq	a0,s6,14e04 <_printf_i+0x224>
   14f84:	001a0a13          	addi	s4,s4,1
   14f88:	00c42783          	lw	a5,12(s0)
   14f8c:	00c12703          	lw	a4,12(sp)
   14f90:	40e787b3          	sub	a5,a5,a4
   14f94:	fcfa4ce3          	blt	s4,a5,14f6c <_printf_i+0x38c>
   14f98:	fc1ff06f          	j	14f58 <_printf_i+0x378>
   14f9c:	00000a13          	li	s4,0
   14fa0:	01940a93          	addi	s5,s0,25
   14fa4:	fff00b13          	li	s6,-1
   14fa8:	fe1ff06f          	j	14f88 <_printf_i+0x3a8>

00014fac <_read_r>:
_read_r():
   14fac:	ff010113          	addi	sp,sp,-16
   14fb0:	00812423          	sw	s0,8(sp)
   14fb4:	00050413          	mv	s0,a0
   14fb8:	00058513          	mv	a0,a1
   14fbc:	00060593          	mv	a1,a2
   14fc0:	00068613          	mv	a2,a3
   14fc4:	00000797          	auipc	a5,0x0
   14fc8:	6a07a623          	sw	zero,1708(a5) # 15670 <errno>
   14fcc:	00112623          	sw	ra,12(sp)
   14fd0:	abcfb0ef          	jal	ra,1028c <_read>
   14fd4:	fff00793          	li	a5,-1
   14fd8:	00f51c63          	bne	a0,a5,14ff0 <_read_r+0x44>
   14fdc:	00000797          	auipc	a5,0x0
   14fe0:	69478793          	addi	a5,a5,1684 # 15670 <errno>
   14fe4:	0007a783          	lw	a5,0(a5)
   14fe8:	00078463          	beqz	a5,14ff0 <_read_r+0x44>
   14fec:	00f42023          	sw	a5,0(s0)
   14ff0:	00c12083          	lw	ra,12(sp)
   14ff4:	00812403          	lw	s0,8(sp)
   14ff8:	01010113          	addi	sp,sp,16
   14ffc:	00008067          	ret

00015000 <_fstat_r>:
_fstat_r():
   15000:	ff010113          	addi	sp,sp,-16
   15004:	00812423          	sw	s0,8(sp)
   15008:	00050413          	mv	s0,a0
   1500c:	00058513          	mv	a0,a1
   15010:	00060593          	mv	a1,a2
   15014:	00000797          	auipc	a5,0x0
   15018:	6407ae23          	sw	zero,1628(a5) # 15670 <errno>
   1501c:	00112623          	sw	ra,12(sp)
   15020:	930fb0ef          	jal	ra,10150 <_fstat>
   15024:	fff00793          	li	a5,-1
   15028:	00f51c63          	bne	a0,a5,15040 <_fstat_r+0x40>
   1502c:	00000797          	auipc	a5,0x0
   15030:	64478793          	addi	a5,a5,1604 # 15670 <errno>
   15034:	0007a783          	lw	a5,0(a5)
   15038:	00078463          	beqz	a5,15040 <_fstat_r+0x40>
   1503c:	00f42023          	sw	a5,0(s0)
   15040:	00c12083          	lw	ra,12(sp)
   15044:	00812403          	lw	s0,8(sp)
   15048:	01010113          	addi	sp,sp,16
   1504c:	00008067          	ret

00015050 <_isatty_r>:
_isatty_r():
   15050:	ff010113          	addi	sp,sp,-16
   15054:	00812423          	sw	s0,8(sp)
   15058:	00050413          	mv	s0,a0
   1505c:	00058513          	mv	a0,a1
   15060:	00000797          	auipc	a5,0x0
   15064:	6007a823          	sw	zero,1552(a5) # 15670 <errno>
   15068:	00112623          	sw	ra,12(sp)
   1506c:	940fb0ef          	jal	ra,101ac <_isatty>
   15070:	fff00793          	li	a5,-1
   15074:	00f51c63          	bne	a0,a5,1508c <_isatty_r+0x3c>
   15078:	00000797          	auipc	a5,0x0
   1507c:	5f878793          	addi	a5,a5,1528 # 15670 <errno>
   15080:	0007a783          	lw	a5,0(a5)
   15084:	00078463          	beqz	a5,1508c <_isatty_r+0x3c>
   15088:	00f42023          	sw	a5,0(s0)
   1508c:	00c12083          	lw	ra,12(sp)
   15090:	00812403          	lw	s0,8(sp)
   15094:	01010113          	addi	sp,sp,16
   15098:	00008067          	ret

0001509c <memchr>:
memchr():
   1509c:	0ff5f593          	andi	a1,a1,255
   150a0:	00c50633          	add	a2,a0,a2
   150a4:	00c51663          	bne	a0,a2,150b0 <memchr+0x14>
   150a8:	00000513          	li	a0,0
   150ac:	00008067          	ret
   150b0:	00054783          	lbu	a5,0(a0)
   150b4:	feb78ce3          	beq	a5,a1,150ac <memchr+0x10>
   150b8:	00150513          	addi	a0,a0,1
   150bc:	fe9ff06f          	j	150a4 <memchr+0x8>
